ARM GAS  C:\Users\Vit\AppData\Local\Temp\ccx5rvxi.s 			page 1


   1              		.cpu cortex-m0
   2              		.fpu softvfp
   3              		.eabi_attribute 20, 1
   4              		.eabi_attribute 21, 1
   5              		.eabi_attribute 23, 3
   6              		.eabi_attribute 24, 1
   7              		.eabi_attribute 25, 1
   8              		.eabi_attribute 26, 1
   9              		.eabi_attribute 30, 1
  10              		.eabi_attribute 34, 0
  11              		.eabi_attribute 18, 4
  12              		.code	16
  13              		.file	"7Seg.c"
  14              		.text
  15              	.Ltext0:
  16              		.cfi_sections	.debug_frame
  17              		.section	.text.Display_Test_1,"ax",%progbits
  18              		.align	2
  19              		.global	Display_Test_1
  20              		.code	16
  21              		.thumb_func
  22              		.type	Display_Test_1, %function
  23              	Display_Test_1:
  24              	.LFB33:
  25              		.file 1 ".\\7Seg.c"
   1:.\7Seg.c      **** /* ========================================
   2:.\7Seg.c      ****  *
   3:.\7Seg.c      ****  * Copyright YOUR COMPANY, THE YEAR
   4:.\7Seg.c      ****  * All Rights Reserved
   5:.\7Seg.c      ****  * UNPUBLISHED, LICENSED SOFTWARE.
   6:.\7Seg.c      ****  *
   7:.\7Seg.c      ****  * CONFIDENTIAL AND PROPRIETARY INFORMATION
   8:.\7Seg.c      ****  * WHICH IS THE PROPERTY OF your company.
   9:.\7Seg.c      ****  *
  10:.\7Seg.c      ****  * ========================================
  11:.\7Seg.c      **** */
  12:.\7Seg.c      **** 
  13:.\7Seg.c      **** #include <7Seg.h>
  14:.\7Seg.c      **** #include <stdlib.h>
  15:.\7Seg.c      **** 
  16:.\7Seg.c      **** volatile const uint8 Font[10] = {0xC0, 0xF9, 0xA4, 0xB0, 0x99, 0x92, 0x82, 0xF8, 0x80, 0x90};
  17:.\7Seg.c      **** volatile uint8 VideoBufer[Number_Of_Segments];
  18:.\7Seg.c      **** volatile uint8 VideoMemory[Video_Memory_Size];
  19:.\7Seg.c      **** extern int8 Temp;
  20:.\7Seg.c      **** extern uint8 Humi;
  21:.\7Seg.c      **** 
  22:.\7Seg.c      **** void Display_Test_1()
  23:.\7Seg.c      **** {
  26              		.loc 1 23 0
  27              		.cfi_startproc
  28 0000 30B5     		push	{r4, r5, lr}
  29              		.cfi_def_cfa_offset 12
  30              		.cfi_offset 4, -12
  31              		.cfi_offset 5, -8
  32              		.cfi_offset 14, -4
  33 0002 83B0     		sub	sp, sp, #12
  34              		.cfi_def_cfa_offset 24
ARM GAS  C:\Users\Vit\AppData\Local\Temp\ccx5rvxi.s 			page 2


  24:.\7Seg.c      ****     volatile uint8 Scroll = 0;
  35              		.loc 1 24 0
  36 0004 6B46     		mov	r3, sp
  37 0006 DD1D     		add	r5, r3, #7
  38 0008 0024     		mov	r4, #0
  39 000a DC71     		strb	r4, [r3, #7]
  25:.\7Seg.c      ****     volatile uint8 Symbol = 0;
  40              		.loc 1 25 0
  41 000c 9C71     		strb	r4, [r3, #6]
  26:.\7Seg.c      ****     SCB_1_SpiSetActiveSlaveSelect(LCD_SPI_SS_Number);
  42              		.loc 1 26 0
  43 000e 0020     		mov	r0, #0
  44 0010 FFF7FEFF 		bl	SCB_1_SpiSetActiveSlaveSelect
  45              	.LVL0:
  27:.\7Seg.c      ****     for(Scroll = 0; Scroll < 4; Scroll++)
  46              		.loc 1 27 0
  47 0014 2C70     		strb	r4, [r5]
  48 0016 33E0     		b	.L2
  49              	.L7:
  28:.\7Seg.c      ****     {
  29:.\7Seg.c      ****         PWM_Mux_Reg_Write(Scroll);
  50              		.loc 1 29 0
  51 0018 6B46     		mov	r3, sp
  52 001a D879     		ldrb	r0, [r3, #7]
  53 001c C0B2     		uxtb	r0, r0
  54 001e FFF7FEFF 		bl	PWM_Mux_Reg_Write
  55              	.LVL1:
  30:.\7Seg.c      ****         for(Symbol = 0; Symbol < 10; Symbol++)
  56              		.loc 1 30 0
  57 0022 0022     		mov	r2, #0
  58 0024 6B46     		mov	r3, sp
  59 0026 9A71     		strb	r2, [r3, #6]
  60 0028 1EE0     		b	.L3
  61              	.L6:
  31:.\7Seg.c      ****         {
  32:.\7Seg.c      ****             SCB_1_SpiUartWriteTxData(Font[Symbol]);
  62              		.loc 1 32 0
  63 002a 6B46     		mov	r3, sp
  64 002c 0633     		add	r3, r3, #6
  65 002e 1B78     		ldrb	r3, [r3]
  66 0030 DBB2     		uxtb	r3, r3
  67 0032 174A     		ldr	r2, .L8
  68 0034 D05C     		ldrb	r0, [r2, r3]
  69 0036 C0B2     		uxtb	r0, r0
  70 0038 FFF7FEFF 		bl	SCB_1_SpiUartWriteTxData
  71              	.LVL2:
  72              	.L5:
  33:.\7Seg.c      ****             while (0u != (SCB_1_SpiUartGetTxBufferSize() + SCB_1_GET_TX_FIFO_SR_VALID))
  73              		.loc 1 33 0 discriminator 5
  74 003c FFF7FEFF 		bl	SCB_1_SpiUartGetTxBufferSize
  75              	.LVL3:
  76 0040 144B     		ldr	r3, .L8+4
  77 0042 1B68     		ldr	r3, [r3]
  78 0044 8022     		mov	r2, #128
  79 0046 1202     		lsl	r2, r2, #8
  80 0048 1340     		and	r3, r2
  81 004a 00D0     		beq	.L4
ARM GAS  C:\Users\Vit\AppData\Local\Temp\ccx5rvxi.s 			page 3


  82              		.loc 1 33 0 is_stmt 0
  83 004c 0123     		mov	r3, #1
  84              	.L4:
  85              		.loc 1 33 0 discriminator 4
  86 004e C318     		add	r3, r0, r3
  87 0050 002B     		cmp	r3, #0
  88 0052 F3D1     		bne	.L5
  34:.\7Seg.c      ****             {
  35:.\7Seg.c      ****             }
  36:.\7Seg.c      ****             CyDelay(500);
  89              		.loc 1 36 0 is_stmt 1 discriminator 2
  90 0054 FA20     		mov	r0, #250
  91 0056 4000     		lsl	r0, r0, #1
  92 0058 FFF7FEFF 		bl	CyDelay
  93              	.LVL4:
  30:.\7Seg.c      ****         {
  94              		.loc 1 30 0 discriminator 2
  95 005c 6B46     		mov	r3, sp
  96 005e 9A1D     		add	r2, r3, #6
  97 0060 9B79     		ldrb	r3, [r3, #6]
  98 0062 0133     		add	r3, r3, #1
  99 0064 DBB2     		uxtb	r3, r3
 100 0066 1370     		strb	r3, [r2]
 101              	.L3:
  30:.\7Seg.c      ****         {
 102              		.loc 1 30 0 is_stmt 0 discriminator 1
 103 0068 6B46     		mov	r3, sp
 104 006a 0633     		add	r3, r3, #6
 105 006c 1B78     		ldrb	r3, [r3]
 106 006e DBB2     		uxtb	r3, r3
 107 0070 092B     		cmp	r3, #9
 108 0072 DAD9     		bls	.L6
  27:.\7Seg.c      ****     {
 109              		.loc 1 27 0 is_stmt 1 discriminator 2
 110 0074 6B46     		mov	r3, sp
 111 0076 DA1D     		add	r2, r3, #7
 112 0078 DB79     		ldrb	r3, [r3, #7]
 113 007a 0133     		add	r3, r3, #1
 114 007c DBB2     		uxtb	r3, r3
 115 007e 1370     		strb	r3, [r2]
 116              	.L2:
  27:.\7Seg.c      ****     {
 117              		.loc 1 27 0 is_stmt 0 discriminator 1
 118 0080 6B46     		mov	r3, sp
 119 0082 0733     		add	r3, r3, #7
 120 0084 1B78     		ldrb	r3, [r3]
 121 0086 DBB2     		uxtb	r3, r3
 122 0088 032B     		cmp	r3, #3
 123 008a C5D9     		bls	.L7
  37:.\7Seg.c      ****         }
  38:.\7Seg.c      ****     }
  39:.\7Seg.c      **** }
 124              		.loc 1 39 0 is_stmt 1
 125 008c 03B0     		add	sp, sp, #12
 126              		@ sp needed
 127 008e 30BD     		pop	{r4, r5, pc}
 128              	.L9:
ARM GAS  C:\Users\Vit\AppData\Local\Temp\ccx5rvxi.s 			page 4


 129              		.align	2
 130              	.L8:
 131 0090 00000000 		.word	.LANCHOR0
 132 0094 08020640 		.word	1074135560
 133              		.cfi_endproc
 134              	.LFE33:
 135              		.size	Display_Test_1, .-Display_Test_1
 136              		.section	.text.Display_Test_2,"ax",%progbits
 137              		.align	2
 138              		.global	Display_Test_2
 139              		.code	16
 140              		.thumb_func
 141              		.type	Display_Test_2, %function
 142              	Display_Test_2:
 143              	.LFB34:
  40:.\7Seg.c      **** void Display_Test_2()
  41:.\7Seg.c      **** {
 144              		.loc 1 41 0
 145              		.cfi_startproc
 146 0000 00B5     		push	{lr}
 147              		.cfi_def_cfa_offset 4
 148              		.cfi_offset 14, -4
 149 0002 83B0     		sub	sp, sp, #12
 150              		.cfi_def_cfa_offset 16
  42:.\7Seg.c      ****     volatile uint8 Scroll = 0;
 151              		.loc 1 42 0
 152 0004 0023     		mov	r3, #0
 153 0006 6A46     		mov	r2, sp
 154 0008 D371     		strb	r3, [r2, #7]
  43:.\7Seg.c      ****     volatile uint8 Symbol = 5;
 155              		.loc 1 43 0
 156 000a 0521     		mov	r1, #5
 157 000c 6A46     		mov	r2, sp
 158 000e 9171     		strb	r1, [r2, #6]
  44:.\7Seg.c      ****     volatile uint8 Brigh = 0;
 159              		.loc 1 44 0
 160 0010 6A46     		mov	r2, sp
 161 0012 5371     		strb	r3, [r2, #5]
  45:.\7Seg.c      ****     SCB_1_SpiSetActiveSlaveSelect(LCD_SPI_SS_Number);
 162              		.loc 1 45 0
 163 0014 0020     		mov	r0, #0
 164 0016 FFF7FEFF 		bl	SCB_1_SpiSetActiveSlaveSelect
 165              	.LVL5:
 166              	.L13:
  46:.\7Seg.c      ****     while(1)
  47:.\7Seg.c      ****     {
  48:.\7Seg.c      ****         PWM_Mux_Reg_Write(Scroll);
 167              		.loc 1 48 0
 168 001a 6B46     		mov	r3, sp
 169 001c D879     		ldrb	r0, [r3, #7]
 170 001e C0B2     		uxtb	r0, r0
 171 0020 FFF7FEFF 		bl	PWM_Mux_Reg_Write
 172              	.LVL6:
  49:.\7Seg.c      ****         LED_SEG_PWM_WriteCompare2(Brigh);
 173              		.loc 1 49 0
 174 0024 6B46     		mov	r3, sp
 175 0026 5879     		ldrb	r0, [r3, #5]
ARM GAS  C:\Users\Vit\AppData\Local\Temp\ccx5rvxi.s 			page 5


 176 0028 C0B2     		uxtb	r0, r0
 177 002a FFF7FEFF 		bl	LED_SEG_PWM_WriteCompare2
 178              	.LVL7:
  50:.\7Seg.c      ****         SCB_1_SpiUartWriteTxData(Font[Symbol]);
 179              		.loc 1 50 0
 180 002e 6B46     		mov	r3, sp
 181 0030 0633     		add	r3, r3, #6
 182 0032 1B78     		ldrb	r3, [r3]
 183 0034 DBB2     		uxtb	r3, r3
 184 0036 124A     		ldr	r2, .L15
 185 0038 D05C     		ldrb	r0, [r2, r3]
 186 003a C0B2     		uxtb	r0, r0
 187 003c FFF7FEFF 		bl	SCB_1_SpiUartWriteTxData
 188              	.LVL8:
 189              	.L12:
  51:.\7Seg.c      ****         while (0u != (SCB_1_SpiUartGetTxBufferSize() + SCB_1_GET_TX_FIFO_SR_VALID))
 190              		.loc 1 51 0 discriminator 5
 191 0040 FFF7FEFF 		bl	SCB_1_SpiUartGetTxBufferSize
 192              	.LVL9:
 193 0044 0F4B     		ldr	r3, .L15+4
 194 0046 1B68     		ldr	r3, [r3]
 195 0048 8022     		mov	r2, #128
 196 004a 1202     		lsl	r2, r2, #8
 197 004c 1340     		and	r3, r2
 198 004e 00D0     		beq	.L11
 199              		.loc 1 51 0 is_stmt 0
 200 0050 0123     		mov	r3, #1
 201              	.L11:
 202              		.loc 1 51 0 discriminator 4
 203 0052 C318     		add	r3, r0, r3
 204 0054 002B     		cmp	r3, #0
 205 0056 F3D1     		bne	.L12
  52:.\7Seg.c      ****         {
  53:.\7Seg.c      ****         }
  54:.\7Seg.c      ****         Scroll++;
 206              		.loc 1 54 0 is_stmt 1
 207 0058 6B46     		mov	r3, sp
 208 005a DA1D     		add	r2, r3, #7
 209 005c DB79     		ldrb	r3, [r3, #7]
 210 005e 0133     		add	r3, r3, #1
 211 0060 DBB2     		uxtb	r3, r3
 212 0062 1370     		strb	r3, [r2]
  55:.\7Seg.c      ****         if(Scroll > 4)
 213              		.loc 1 55 0
 214 0064 1378     		ldrb	r3, [r2]
 215 0066 DBB2     		uxtb	r3, r3
 216 0068 042B     		cmp	r3, #4
 217 006a D6D9     		bls	.L13
  56:.\7Seg.c      ****         {
  57:.\7Seg.c      ****             Scroll = 0;
 218              		.loc 1 57 0
 219 006c 0022     		mov	r2, #0
 220 006e 6B46     		mov	r3, sp
 221 0070 DA71     		strb	r2, [r3, #7]
  58:.\7Seg.c      ****             Brigh++;
 222              		.loc 1 58 0
 223 0072 6B46     		mov	r3, sp
ARM GAS  C:\Users\Vit\AppData\Local\Temp\ccx5rvxi.s 			page 6


 224 0074 5A1D     		add	r2, r3, #5
 225 0076 5B79     		ldrb	r3, [r3, #5]
 226 0078 0133     		add	r3, r3, #1
 227 007a DBB2     		uxtb	r3, r3
 228 007c 1370     		strb	r3, [r2]
 229 007e CCE7     		b	.L13
 230              	.L16:
 231              		.align	2
 232              	.L15:
 233 0080 00000000 		.word	.LANCHOR0
 234 0084 08020640 		.word	1074135560
 235              		.cfi_endproc
 236              	.LFE34:
 237              		.size	Display_Test_2, .-Display_Test_2
 238              		.section	.text.Init_Video_Memory,"ax",%progbits
 239              		.align	2
 240              		.global	Init_Video_Memory
 241              		.code	16
 242              		.thumb_func
 243              		.type	Init_Video_Memory, %function
 244              	Init_Video_Memory:
 245              	.LFB35:
  59:.\7Seg.c      ****         }
  60:.\7Seg.c      ****     }
  61:.\7Seg.c      **** }
  62:.\7Seg.c      **** 
  63:.\7Seg.c      **** void Init_Video_Memory()
  64:.\7Seg.c      **** {
 246              		.loc 1 64 0
 247              		.cfi_startproc
 248 0000 82B0     		sub	sp, sp, #8
 249              		.cfi_def_cfa_offset 8
  65:.\7Seg.c      ****     volatile uint8 Scroll;
  66:.\7Seg.c      ****     for(Scroll = 0; Scroll < Video_Memory_Size; Scroll++)
 250              		.loc 1 66 0
 251 0002 0022     		mov	r2, #0
 252 0004 6B46     		mov	r3, sp
 253 0006 DA71     		strb	r2, [r3, #7]
 254 0008 0AE0     		b	.L18
 255              	.L19:
  67:.\7Seg.c      ****     {
  68:.\7Seg.c      ****         VideoMemory[Scroll] = 0x00;
 256              		.loc 1 68 0 discriminator 3
 257 000a 6B46     		mov	r3, sp
 258 000c DA1D     		add	r2, r3, #7
 259 000e DB79     		ldrb	r3, [r3, #7]
 260 0010 DBB2     		uxtb	r3, r3
 261 0012 0020     		mov	r0, #0
 262 0014 0649     		ldr	r1, .L20
 263 0016 C854     		strb	r0, [r1, r3]
  66:.\7Seg.c      ****     {
 264              		.loc 1 66 0 discriminator 3
 265 0018 1378     		ldrb	r3, [r2]
 266 001a 0133     		add	r3, r3, #1
 267 001c DBB2     		uxtb	r3, r3
 268 001e 1370     		strb	r3, [r2]
 269              	.L18:
ARM GAS  C:\Users\Vit\AppData\Local\Temp\ccx5rvxi.s 			page 7


  66:.\7Seg.c      ****     {
 270              		.loc 1 66 0 is_stmt 0 discriminator 1
 271 0020 6B46     		mov	r3, sp
 272 0022 0733     		add	r3, r3, #7
 273 0024 1B78     		ldrb	r3, [r3]
 274 0026 DBB2     		uxtb	r3, r3
 275 0028 102B     		cmp	r3, #16
 276 002a EED9     		bls	.L19
  69:.\7Seg.c      ****     }
  70:.\7Seg.c      **** }
 277              		.loc 1 70 0 is_stmt 1
 278 002c 02B0     		add	sp, sp, #8
 279              		@ sp needed
 280 002e 7047     		bx	lr
 281              	.L21:
 282              		.align	2
 283              	.L20:
 284 0030 00000000 		.word	VideoMemory
 285              		.cfi_endproc
 286              	.LFE35:
 287              		.size	Init_Video_Memory, .-Init_Video_Memory
 288              		.section	.text.Display_Write_Numer,"ax",%progbits
 289              		.align	2
 290              		.global	Display_Write_Numer
 291              		.code	16
 292              		.thumb_func
 293              		.type	Display_Write_Numer, %function
 294              	Display_Write_Numer:
 295              	.LFB36:
  71:.\7Seg.c      **** 
  72:.\7Seg.c      **** void Display_Write_Numer(uint8 Number, uint8 Segment)
  73:.\7Seg.c      **** {
 296              		.loc 1 73 0
 297              		.cfi_startproc
 298              	.LVL10:
 299 0000 10B5     		push	{r4, lr}
 300              		.cfi_def_cfa_offset 8
 301              		.cfi_offset 4, -8
 302              		.cfi_offset 14, -4
  74:.\7Seg.c      ****     if((Number < 10) && (Segment < Number_Of_Segments))
 303              		.loc 1 74 0
 304 0002 0928     		cmp	r0, #9
 305 0004 16D8     		bhi	.L22
 306              		.loc 1 74 0 is_stmt 0 discriminator 1
 307 0006 0329     		cmp	r1, #3
 308 0008 14D8     		bhi	.L22
 309 000a 041C     		mov	r4, r0
  75:.\7Seg.c      ****     {
  76:.\7Seg.c      ****         PWM_Mux_Reg_Write(Segment);
 310              		.loc 1 76 0 is_stmt 1
 311 000c 081C     		mov	r0, r1
 312              	.LVL11:
 313 000e FFF7FEFF 		bl	PWM_Mux_Reg_Write
 314              	.LVL12:
  77:.\7Seg.c      ****         SCB_1_SpiUartWriteTxData(Font[Number]);
 315              		.loc 1 77 0
 316 0012 094B     		ldr	r3, .L26
ARM GAS  C:\Users\Vit\AppData\Local\Temp\ccx5rvxi.s 			page 8


 317 0014 185D     		ldrb	r0, [r3, r4]
 318 0016 C0B2     		uxtb	r0, r0
 319 0018 FFF7FEFF 		bl	SCB_1_SpiUartWriteTxData
 320              	.LVL13:
 321              	.L25:
  78:.\7Seg.c      ****         while (0u != (SCB_1_SpiUartGetTxBufferSize() + SCB_1_GET_TX_FIFO_SR_VALID))
 322              		.loc 1 78 0 discriminator 5
 323 001c FFF7FEFF 		bl	SCB_1_SpiUartGetTxBufferSize
 324              	.LVL14:
 325 0020 064B     		ldr	r3, .L26+4
 326 0022 1B68     		ldr	r3, [r3]
 327 0024 8022     		mov	r2, #128
 328 0026 1202     		lsl	r2, r2, #8
 329 0028 1340     		and	r3, r2
 330 002a 00D0     		beq	.L24
 331              		.loc 1 78 0 is_stmt 0
 332 002c 0123     		mov	r3, #1
 333              	.L24:
 334              		.loc 1 78 0 discriminator 4
 335 002e C318     		add	r3, r0, r3
 336 0030 002B     		cmp	r3, #0
 337 0032 F3D1     		bne	.L25
 338              	.L22:
  79:.\7Seg.c      ****         {
  80:.\7Seg.c      ****         }
  81:.\7Seg.c      ****     }
  82:.\7Seg.c      **** }
 339              		.loc 1 82 0 is_stmt 1
 340              		@ sp needed
 341 0034 10BD     		pop	{r4, pc}
 342              	.L27:
 343 0036 C046     		.align	2
 344              	.L26:
 345 0038 00000000 		.word	.LANCHOR0
 346 003c 08020640 		.word	1074135560
 347              		.cfi_endproc
 348              	.LFE36:
 349              		.size	Display_Write_Numer, .-Display_Write_Numer
 350              		.global	__aeabi_idiv
 351              		.global	__aeabi_idivmod
 352              		.global	__aeabi_uidiv
 353              		.global	__aeabi_uidivmod
 354              		.section	.text.Display_Set_Video_Memory,"ax",%progbits
 355              		.align	2
 356              		.global	Display_Set_Video_Memory
 357              		.code	16
 358              		.thumb_func
 359              		.type	Display_Set_Video_Memory, %function
 360              	Display_Set_Video_Memory:
 361              	.LFB37:
  83:.\7Seg.c      **** 
  84:.\7Seg.c      **** void Display_Set_Video_Memory(void)
  85:.\7Seg.c      **** {
 362              		.loc 1 85 0
 363              		.cfi_startproc
 364 0000 F0B5     		push	{r4, r5, r6, r7, lr}
 365              		.cfi_def_cfa_offset 20
ARM GAS  C:\Users\Vit\AppData\Local\Temp\ccx5rvxi.s 			page 9


 366              		.cfi_offset 4, -20
 367              		.cfi_offset 5, -16
 368              		.cfi_offset 6, -12
 369              		.cfi_offset 7, -8
 370              		.cfi_offset 14, -4
 371 0002 4746     		mov	r7, r8
 372 0004 80B4     		push	{r7}
 373              		.cfi_def_cfa_offset 24
 374              		.cfi_offset 8, -24
 375 0006 82B0     		sub	sp, sp, #8
 376              		.cfi_def_cfa_offset 32
  86:.\7Seg.c      ****     volatile uint8 Scroll = 0;
 377              		.loc 1 86 0
 378 0008 6B46     		mov	r3, sp
 379 000a 0022     		mov	r2, #0
 380 000c DA71     		strb	r2, [r3, #7]
  87:.\7Seg.c      ****     VideoMemory[Scroll] = Symbol_T;
 381              		.loc 1 87 0
 382 000e DA79     		ldrb	r2, [r3, #7]
 383 0010 D2B2     		uxtb	r2, r2
 384 0012 6249     		ldr	r1, .L34
 385 0014 8720     		mov	r0, #135
 386 0016 8854     		strb	r0, [r1, r2]
  88:.\7Seg.c      ****     Scroll++;
 387              		.loc 1 88 0
 388 0018 DA79     		ldrb	r2, [r3, #7]
 389 001a 0132     		add	r2, r2, #1
 390 001c D2B2     		uxtb	r2, r2
 391 001e DA71     		strb	r2, [r3, #7]
  89:.\7Seg.c      ****     VideoMemory[Scroll] = Symbol_Space;
 392              		.loc 1 89 0
 393 0020 DA79     		ldrb	r2, [r3, #7]
 394 0022 D2B2     		uxtb	r2, r2
 395 0024 7830     		add	r0, r0, #120
 396 0026 8854     		strb	r0, [r1, r2]
  90:.\7Seg.c      ****     Scroll++;
 397              		.loc 1 90 0
 398 0028 DA79     		ldrb	r2, [r3, #7]
 399 002a 0132     		add	r2, r2, #1
 400 002c D2B2     		uxtb	r2, r2
 401 002e DA71     		strb	r2, [r3, #7]
  91:.\7Seg.c      ****     
  92:.\7Seg.c      ****         if(Temp < 0)
 402              		.loc 1 92 0
 403 0030 5B4B     		ldr	r3, .L34+4
 404 0032 1B78     		ldrb	r3, [r3]
 405 0034 5AB2     		sxtb	r2, r3
 406 0036 002A     		cmp	r2, #0
 407 0038 0ADA     		bge	.L29
  93:.\7Seg.c      ****         {
  94:.\7Seg.c      ****             VideoMemory[Scroll] = Symbol_minus;
 408              		.loc 1 94 0
 409 003a 6A46     		mov	r2, sp
 410 003c D11D     		add	r1, r2, #7
 411 003e D279     		ldrb	r2, [r2, #7]
 412 0040 D2B2     		uxtb	r2, r2
 413 0042 BF24     		mov	r4, #191
ARM GAS  C:\Users\Vit\AppData\Local\Temp\ccx5rvxi.s 			page 10


 414 0044 5548     		ldr	r0, .L34
 415 0046 8454     		strb	r4, [r0, r2]
  95:.\7Seg.c      ****             Scroll++;
 416              		.loc 1 95 0
 417 0048 0A78     		ldrb	r2, [r1]
 418 004a 0132     		add	r2, r2, #1
 419 004c D2B2     		uxtb	r2, r2
 420 004e 0A70     		strb	r2, [r1]
 421              	.L29:
  96:.\7Seg.c      ****         }
  97:.\7Seg.c      ****         if(abs(Temp) > 10)
 422              		.loc 1 97 0
 423 0050 5BB2     		sxtb	r3, r3
 424 0052 DA17     		asr	r2, r3, #31
 425 0054 9D18     		add	r5, r3, r2
 426 0056 5540     		eor	r5, r2
 427 0058 0A2D     		cmp	r5, #10
 428 005a 20DD     		ble	.L30
  98:.\7Seg.c      ****         {
  99:.\7Seg.c      ****             VideoMemory[Scroll] = Font[(abs(Temp)) / 10];
 429              		.loc 1 99 0
 430 005c 6B46     		mov	r3, sp
 431 005e DC1D     		add	r4, r3, #7
 432 0060 DE79     		ldrb	r6, [r3, #7]
 433 0062 F6B2     		uxtb	r6, r6
 434 0064 281C     		mov	r0, r5
 435 0066 0A21     		mov	r1, #10
 436 0068 FFF7FEFF 		bl	__aeabi_idiv
 437              	.LVL15:
 438 006c 4D4B     		ldr	r3, .L34+8
 439 006e 9846     		mov	r8, r3
 440 0070 1B5C     		ldrb	r3, [r3, r0]
 441 0072 DBB2     		uxtb	r3, r3
 442 0074 494F     		ldr	r7, .L34
 443 0076 BB55     		strb	r3, [r7, r6]
 100:.\7Seg.c      ****             Scroll++;
 444              		.loc 1 100 0
 445 0078 2378     		ldrb	r3, [r4]
 446 007a 0133     		add	r3, r3, #1
 447 007c DBB2     		uxtb	r3, r3
 448 007e 2370     		strb	r3, [r4]
 101:.\7Seg.c      ****             VideoMemory[Scroll] = Font[(abs(Temp)) % 10];
 449              		.loc 1 101 0
 450 0080 2678     		ldrb	r6, [r4]
 451 0082 F6B2     		uxtb	r6, r6
 452 0084 281C     		mov	r0, r5
 453 0086 0A21     		mov	r1, #10
 454 0088 FFF7FEFF 		bl	__aeabi_idivmod
 455              	.LVL16:
 456 008c 4346     		mov	r3, r8
 457 008e 5B5C     		ldrb	r3, [r3, r1]
 458 0090 DBB2     		uxtb	r3, r3
 459 0092 BB55     		strb	r3, [r7, r6]
 102:.\7Seg.c      ****             Scroll++;
 460              		.loc 1 102 0
 461 0094 2378     		ldrb	r3, [r4]
 462 0096 0133     		add	r3, r3, #1
ARM GAS  C:\Users\Vit\AppData\Local\Temp\ccx5rvxi.s 			page 11


 463 0098 DBB2     		uxtb	r3, r3
 464 009a 2370     		strb	r3, [r4]
 465 009c 0BE0     		b	.L31
 466              	.L30:
 103:.\7Seg.c      ****         }
 104:.\7Seg.c      ****         else
 105:.\7Seg.c      ****         {
 106:.\7Seg.c      ****             VideoMemory[Scroll] = Font[Temp];
 467              		.loc 1 106 0
 468 009e 6A46     		mov	r2, sp
 469 00a0 D179     		ldrb	r1, [r2, #7]
 470 00a2 C9B2     		uxtb	r1, r1
 471 00a4 3F48     		ldr	r0, .L34+8
 472 00a6 C35C     		ldrb	r3, [r0, r3]
 473 00a8 DBB2     		uxtb	r3, r3
 474 00aa 3C48     		ldr	r0, .L34
 475 00ac 4354     		strb	r3, [r0, r1]
 107:.\7Seg.c      ****             Scroll++;
 476              		.loc 1 107 0
 477 00ae D379     		ldrb	r3, [r2, #7]
 478 00b0 0133     		add	r3, r3, #1
 479 00b2 DBB2     		uxtb	r3, r3
 480 00b4 D371     		strb	r3, [r2, #7]
 481              	.L31:
 108:.\7Seg.c      ****         }
 109:.\7Seg.c      ****     
 110:.\7Seg.c      ****     VideoMemory[Scroll] = Symbol_Degrees;
 482              		.loc 1 110 0
 483 00b6 6B46     		mov	r3, sp
 484 00b8 D979     		ldrb	r1, [r3, #7]
 485 00ba C9B2     		uxtb	r1, r1
 486 00bc 374A     		ldr	r2, .L34
 487 00be 9C20     		mov	r0, #156
 488 00c0 5054     		strb	r0, [r2, r1]
 111:.\7Seg.c      ****     Scroll++;
 489              		.loc 1 111 0
 490 00c2 D979     		ldrb	r1, [r3, #7]
 491 00c4 0131     		add	r1, r1, #1
 492 00c6 C9B2     		uxtb	r1, r1
 493 00c8 D971     		strb	r1, [r3, #7]
 112:.\7Seg.c      ****     VideoMemory[Scroll] = Symbol_C;
 494              		.loc 1 112 0
 495 00ca D979     		ldrb	r1, [r3, #7]
 496 00cc C9B2     		uxtb	r1, r1
 497 00ce 2A30     		add	r0, r0, #42
 498 00d0 5054     		strb	r0, [r2, r1]
 113:.\7Seg.c      ****     Scroll++;
 499              		.loc 1 113 0
 500 00d2 D979     		ldrb	r1, [r3, #7]
 501 00d4 0131     		add	r1, r1, #1
 502 00d6 C9B2     		uxtb	r1, r1
 503 00d8 D971     		strb	r1, [r3, #7]
 114:.\7Seg.c      ****     VideoMemory[Scroll] = Symbol_Space;
 504              		.loc 1 114 0
 505 00da D979     		ldrb	r1, [r3, #7]
 506 00dc C9B2     		uxtb	r1, r1
 507 00de 3930     		add	r0, r0, #57
ARM GAS  C:\Users\Vit\AppData\Local\Temp\ccx5rvxi.s 			page 12


 508 00e0 5054     		strb	r0, [r2, r1]
 115:.\7Seg.c      ****     Scroll++;
 509              		.loc 1 115 0
 510 00e2 D979     		ldrb	r1, [r3, #7]
 511 00e4 0131     		add	r1, r1, #1
 512 00e6 C9B2     		uxtb	r1, r1
 513 00e8 D971     		strb	r1, [r3, #7]
 116:.\7Seg.c      ****     VideoMemory[Scroll] = Symbol_H;
 514              		.loc 1 116 0
 515 00ea D979     		ldrb	r1, [r3, #7]
 516 00ec C9B2     		uxtb	r1, r1
 517 00ee 8924     		mov	r4, #137
 518 00f0 5454     		strb	r4, [r2, r1]
 117:.\7Seg.c      ****     Scroll++;
 519              		.loc 1 117 0
 520 00f2 D979     		ldrb	r1, [r3, #7]
 521 00f4 0131     		add	r1, r1, #1
 522 00f6 C9B2     		uxtb	r1, r1
 523 00f8 D971     		strb	r1, [r3, #7]
 118:.\7Seg.c      ****     VideoMemory[Scroll] = Symbol_Space;
 524              		.loc 1 118 0
 525 00fa D979     		ldrb	r1, [r3, #7]
 526 00fc C9B2     		uxtb	r1, r1
 527 00fe 5054     		strb	r0, [r2, r1]
 119:.\7Seg.c      ****     Scroll++;
 528              		.loc 1 119 0
 529 0100 DA79     		ldrb	r2, [r3, #7]
 530 0102 0132     		add	r2, r2, #1
 531 0104 D2B2     		uxtb	r2, r2
 532 0106 DA71     		strb	r2, [r3, #7]
 120:.\7Seg.c      ****     
 121:.\7Seg.c      ****         if(Humi > 10)
 533              		.loc 1 121 0
 534 0108 274B     		ldr	r3, .L34+12
 535 010a 1C78     		ldrb	r4, [r3]
 536 010c 0A2C     		cmp	r4, #10
 537 010e 22D9     		bls	.L32
 122:.\7Seg.c      ****         {
 123:.\7Seg.c      ****             VideoMemory[Scroll] = Font[Humi / 10];
 538              		.loc 1 123 0
 539 0110 6B46     		mov	r3, sp
 540 0112 DD1D     		add	r5, r3, #7
 541 0114 DE79     		ldrb	r6, [r3, #7]
 542 0116 F6B2     		uxtb	r6, r6
 543 0118 201C     		mov	r0, r4
 544 011a 0A21     		mov	r1, #10
 545 011c FFF7FEFF 		bl	__aeabi_uidiv
 546              	.LVL17:
 547 0120 C0B2     		uxtb	r0, r0
 548 0122 204B     		ldr	r3, .L34+8
 549 0124 9846     		mov	r8, r3
 550 0126 1B5C     		ldrb	r3, [r3, r0]
 551 0128 DBB2     		uxtb	r3, r3
 552 012a 1C4F     		ldr	r7, .L34
 553 012c BB55     		strb	r3, [r7, r6]
 124:.\7Seg.c      ****             Scroll++;
 554              		.loc 1 124 0
ARM GAS  C:\Users\Vit\AppData\Local\Temp\ccx5rvxi.s 			page 13


 555 012e 2B78     		ldrb	r3, [r5]
 556 0130 0133     		add	r3, r3, #1
 557 0132 DBB2     		uxtb	r3, r3
 558 0134 2B70     		strb	r3, [r5]
 125:.\7Seg.c      ****             VideoMemory[Scroll] = Font[Humi % 10];
 559              		.loc 1 125 0
 560 0136 2E78     		ldrb	r6, [r5]
 561 0138 F6B2     		uxtb	r6, r6
 562 013a 201C     		mov	r0, r4
 563 013c 0A21     		mov	r1, #10
 564 013e FFF7FEFF 		bl	__aeabi_uidivmod
 565              	.LVL18:
 566 0142 C9B2     		uxtb	r1, r1
 567 0144 4346     		mov	r3, r8
 568 0146 5B5C     		ldrb	r3, [r3, r1]
 569 0148 DBB2     		uxtb	r3, r3
 570 014a BB55     		strb	r3, [r7, r6]
 126:.\7Seg.c      ****             Scroll++;
 571              		.loc 1 126 0
 572 014c 2B78     		ldrb	r3, [r5]
 573 014e 0133     		add	r3, r3, #1
 574 0150 DBB2     		uxtb	r3, r3
 575 0152 2B70     		strb	r3, [r5]
 576 0154 0CE0     		b	.L33
 577              	.L32:
 127:.\7Seg.c      ****         }
 128:.\7Seg.c      ****         else
 129:.\7Seg.c      ****         {
 130:.\7Seg.c      ****             VideoMemory[Scroll] = Font[Humi];
 578              		.loc 1 130 0
 579 0156 6B46     		mov	r3, sp
 580 0158 DA1D     		add	r2, r3, #7
 581 015a DB79     		ldrb	r3, [r3, #7]
 582 015c DBB2     		uxtb	r3, r3
 583 015e 1149     		ldr	r1, .L34+8
 584 0160 095D     		ldrb	r1, [r1, r4]
 585 0162 C9B2     		uxtb	r1, r1
 586 0164 0D48     		ldr	r0, .L34
 587 0166 C154     		strb	r1, [r0, r3]
 131:.\7Seg.c      ****             Scroll++;
 588              		.loc 1 131 0
 589 0168 1378     		ldrb	r3, [r2]
 590 016a 0133     		add	r3, r3, #1
 591 016c DBB2     		uxtb	r3, r3
 592 016e 1370     		strb	r3, [r2]
 593              	.L33:
 132:.\7Seg.c      ****         }
 133:.\7Seg.c      ****         VideoMemory[Scroll] = Symbol_Degrees;
 594              		.loc 1 133 0
 595 0170 6B46     		mov	r3, sp
 596 0172 DA79     		ldrb	r2, [r3, #7]
 597 0174 D2B2     		uxtb	r2, r2
 598 0176 0949     		ldr	r1, .L34
 599 0178 9C20     		mov	r0, #156
 600 017a 8854     		strb	r0, [r1, r2]
 134:.\7Seg.c      ****         Scroll++;
 601              		.loc 1 134 0
ARM GAS  C:\Users\Vit\AppData\Local\Temp\ccx5rvxi.s 			page 14


 602 017c DA79     		ldrb	r2, [r3, #7]
 603 017e 0132     		add	r2, r2, #1
 604 0180 D2B2     		uxtb	r2, r2
 605 0182 DA71     		strb	r2, [r3, #7]
 135:.\7Seg.c      ****         VideoMemory[Scroll] = Symbol_Procent;
 606              		.loc 1 135 0
 607 0184 DA79     		ldrb	r2, [r3, #7]
 608 0186 D2B2     		uxtb	r2, r2
 609 0188 0730     		add	r0, r0, #7
 610 018a 8854     		strb	r0, [r1, r2]
 136:.\7Seg.c      ****         Scroll++;
 611              		.loc 1 136 0
 612 018c DA79     		ldrb	r2, [r3, #7]
 613 018e 0132     		add	r2, r2, #1
 614 0190 D2B2     		uxtb	r2, r2
 615 0192 DA71     		strb	r2, [r3, #7]
 137:.\7Seg.c      **** }
 616              		.loc 1 137 0
 617 0194 02B0     		add	sp, sp, #8
 618              		@ sp needed
 619 0196 04BC     		pop	{r2}
 620 0198 9046     		mov	r8, r2
 621 019a F0BD     		pop	{r4, r5, r6, r7, pc}
 622              	.L35:
 623              		.align	2
 624              	.L34:
 625 019c 00000000 		.word	VideoMemory
 626 01a0 00000000 		.word	Temp
 627 01a4 00000000 		.word	.LANCHOR0
 628 01a8 00000000 		.word	Humi
 629              		.cfi_endproc
 630              	.LFE37:
 631              		.size	Display_Set_Video_Memory, .-Display_Set_Video_Memory
 632              		.section	.text.Display_Scroll_Video_Memory,"ax",%progbits
 633              		.align	2
 634              		.global	Display_Scroll_Video_Memory
 635              		.code	16
 636              		.thumb_func
 637              		.type	Display_Scroll_Video_Memory, %function
 638              	Display_Scroll_Video_Memory:
 639              	.LFB38:
 138:.\7Seg.c      **** 
 139:.\7Seg.c      **** void Display_Scroll_Video_Memory(void)
 140:.\7Seg.c      **** {
 640              		.loc 1 140 0
 641              		.cfi_startproc
 642 0000 82B0     		sub	sp, sp, #8
 643              		.cfi_def_cfa_offset 8
 141:.\7Seg.c      ****     volatile uint8 Scroll = 0;
 644              		.loc 1 141 0
 645 0002 6B46     		mov	r3, sp
 646 0004 0022     		mov	r2, #0
 647 0006 DA71     		strb	r2, [r3, #7]
 142:.\7Seg.c      ****     for(Scroll = 0; Scroll < 4; Scroll++)
 648              		.loc 1 142 0
 649 0008 DA71     		strb	r2, [r3, #7]
 650 000a 0EE0     		b	.L37
ARM GAS  C:\Users\Vit\AppData\Local\Temp\ccx5rvxi.s 			page 15


 651              	.L38:
 143:.\7Seg.c      ****     {
 144:.\7Seg.c      ****         VideoBufer[Scroll] = VideoMemory[Scroll];
 652              		.loc 1 144 0 discriminator 3
 653 000c 6B46     		mov	r3, sp
 654 000e DA1D     		add	r2, r3, #7
 655 0010 DB79     		ldrb	r3, [r3, #7]
 656 0012 DBB2     		uxtb	r3, r3
 657 0014 1178     		ldrb	r1, [r2]
 658 0016 C9B2     		uxtb	r1, r1
 659 0018 1448     		ldr	r0, .L41
 660 001a 415C     		ldrb	r1, [r0, r1]
 661 001c C9B2     		uxtb	r1, r1
 662 001e 1448     		ldr	r0, .L41+4
 663 0020 C154     		strb	r1, [r0, r3]
 142:.\7Seg.c      ****     for(Scroll = 0; Scroll < 4; Scroll++)
 664              		.loc 1 142 0 discriminator 3
 665 0022 1378     		ldrb	r3, [r2]
 666 0024 0133     		add	r3, r3, #1
 667 0026 DBB2     		uxtb	r3, r3
 668 0028 1370     		strb	r3, [r2]
 669              	.L37:
 142:.\7Seg.c      ****     for(Scroll = 0; Scroll < 4; Scroll++)
 670              		.loc 1 142 0 is_stmt 0 discriminator 1
 671 002a 6B46     		mov	r3, sp
 672 002c 0733     		add	r3, r3, #7
 673 002e 1B78     		ldrb	r3, [r3]
 674 0030 DBB2     		uxtb	r3, r3
 675 0032 032B     		cmp	r3, #3
 676 0034 EAD9     		bls	.L38
 145:.\7Seg.c      ****     }
 146:.\7Seg.c      ****     for(Scroll = 0; Scroll < 16; Scroll++)
 677              		.loc 1 146 0 is_stmt 1
 678 0036 0022     		mov	r2, #0
 679 0038 6B46     		mov	r3, sp
 680 003a DA71     		strb	r2, [r3, #7]
 681 003c 0DE0     		b	.L39
 682              	.L40:
 147:.\7Seg.c      ****     {
 148:.\7Seg.c      ****         VideoMemory[Scroll] = VideoMemory[Scroll+1];
 683              		.loc 1 148 0 discriminator 3
 684 003e 6B46     		mov	r3, sp
 685 0040 DA1D     		add	r2, r3, #7
 686 0042 DB79     		ldrb	r3, [r3, #7]
 687 0044 DBB2     		uxtb	r3, r3
 688 0046 1178     		ldrb	r1, [r2]
 689 0048 0131     		add	r1, r1, #1
 690 004a 0848     		ldr	r0, .L41
 691 004c 415C     		ldrb	r1, [r0, r1]
 692 004e C9B2     		uxtb	r1, r1
 693 0050 C154     		strb	r1, [r0, r3]
 146:.\7Seg.c      ****     {
 694              		.loc 1 146 0 discriminator 3
 695 0052 1378     		ldrb	r3, [r2]
 696 0054 0133     		add	r3, r3, #1
 697 0056 DBB2     		uxtb	r3, r3
 698 0058 1370     		strb	r3, [r2]
ARM GAS  C:\Users\Vit\AppData\Local\Temp\ccx5rvxi.s 			page 16


 699              	.L39:
 146:.\7Seg.c      ****     {
 700              		.loc 1 146 0 is_stmt 0 discriminator 1
 701 005a 6B46     		mov	r3, sp
 702 005c 0733     		add	r3, r3, #7
 703 005e 1B78     		ldrb	r3, [r3]
 704 0060 DBB2     		uxtb	r3, r3
 705 0062 0F2B     		cmp	r3, #15
 706 0064 EBD9     		bls	.L40
 149:.\7Seg.c      ****     }
 150:.\7Seg.c      **** }
 707              		.loc 1 150 0 is_stmt 1
 708 0066 02B0     		add	sp, sp, #8
 709              		@ sp needed
 710 0068 7047     		bx	lr
 711              	.L42:
 712 006a C046     		.align	2
 713              	.L41:
 714 006c 00000000 		.word	VideoMemory
 715 0070 00000000 		.word	VideoBufer
 716              		.cfi_endproc
 717              	.LFE38:
 718              		.size	Display_Scroll_Video_Memory, .-Display_Scroll_Video_Memory
 719              		.section	.text.Display_Write_Mem,"ax",%progbits
 720              		.align	2
 721              		.global	Display_Write_Mem
 722              		.code	16
 723              		.thumb_func
 724              		.type	Display_Write_Mem, %function
 725              	Display_Write_Mem:
 726              	.LFB39:
 151:.\7Seg.c      **** 
 152:.\7Seg.c      **** void Display_Write_Mem(void)
 153:.\7Seg.c      **** {
 727              		.loc 1 153 0
 728              		.cfi_startproc
 729 0000 10B5     		push	{r4, lr}
 730              		.cfi_def_cfa_offset 8
 731              		.cfi_offset 4, -8
 732              		.cfi_offset 14, -4
 733 0002 82B0     		sub	sp, sp, #8
 734              		.cfi_def_cfa_offset 16
 154:.\7Seg.c      ****     volatile uint8 Scroll;
 155:.\7Seg.c      ****     for(Scroll = 0; Scroll < 4; Scroll++)
 735              		.loc 1 155 0
 736 0004 0022     		mov	r2, #0
 737 0006 6B46     		mov	r3, sp
 738 0008 DA71     		strb	r2, [r3, #7]
 739 000a 2FE0     		b	.L44
 740              	.L48:
 156:.\7Seg.c      ****     {
 157:.\7Seg.c      ****         if(VideoBufer[Scroll] == 0)
 741              		.loc 1 157 0
 742 000c 6B46     		mov	r3, sp
 743 000e 0733     		add	r3, r3, #7
 744 0010 1B78     		ldrb	r3, [r3]
 745 0012 DBB2     		uxtb	r3, r3
ARM GAS  C:\Users\Vit\AppData\Local\Temp\ccx5rvxi.s 			page 17


 746 0014 194A     		ldr	r2, .L49
 747 0016 D35C     		ldrb	r3, [r2, r3]
 748 0018 002B     		cmp	r3, #0
 749 001a 05D1     		bne	.L45
 158:.\7Seg.c      ****         {
 159:.\7Seg.c      ****             VideoBufer[Scroll] = Symbol_Space;
 750              		.loc 1 159 0
 751 001c 6B46     		mov	r3, sp
 752 001e 0733     		add	r3, r3, #7
 753 0020 1B78     		ldrb	r3, [r3]
 754 0022 DBB2     		uxtb	r3, r3
 755 0024 FF21     		mov	r1, #255
 756 0026 D154     		strb	r1, [r2, r3]
 757              	.L45:
 160:.\7Seg.c      ****         }
 161:.\7Seg.c      ****             SCB_1_SpiUartWriteTxData(VideoBufer[Scroll]);
 758              		.loc 1 161 0
 759 0028 6B46     		mov	r3, sp
 760 002a 0733     		add	r3, r3, #7
 761 002c 1B78     		ldrb	r3, [r3]
 762 002e DBB2     		uxtb	r3, r3
 763 0030 124A     		ldr	r2, .L49
 764 0032 D05C     		ldrb	r0, [r2, r3]
 765 0034 C0B2     		uxtb	r0, r0
 766 0036 FFF7FEFF 		bl	SCB_1_SpiUartWriteTxData
 767              	.LVL19:
 768              	.L47:
 162:.\7Seg.c      ****             while (0u != (SCB_1_SpiUartGetTxBufferSize() + SCB_1_GET_TX_FIFO_SR_VALID))
 769              		.loc 1 162 0 discriminator 5
 770 003a FFF7FEFF 		bl	SCB_1_SpiUartGetTxBufferSize
 771              	.LVL20:
 772 003e 104B     		ldr	r3, .L49+4
 773 0040 1B68     		ldr	r3, [r3]
 774 0042 8022     		mov	r2, #128
 775 0044 1202     		lsl	r2, r2, #8
 776 0046 1340     		and	r3, r2
 777 0048 00D0     		beq	.L46
 778              		.loc 1 162 0 is_stmt 0
 779 004a 0123     		mov	r3, #1
 780              	.L46:
 781              		.loc 1 162 0 discriminator 4
 782 004c C318     		add	r3, r0, r3
 783 004e 002B     		cmp	r3, #0
 784 0050 F3D1     		bne	.L47
 163:.\7Seg.c      ****             {
 164:.\7Seg.c      ****             }
 165:.\7Seg.c      ****             PWM_Mux_Reg_Write(Scroll);
 785              		.loc 1 165 0 is_stmt 1 discriminator 2
 786 0052 6B46     		mov	r3, sp
 787 0054 DC1D     		add	r4, r3, #7
 788 0056 D879     		ldrb	r0, [r3, #7]
 789 0058 C0B2     		uxtb	r0, r0
 790 005a FFF7FEFF 		bl	PWM_Mux_Reg_Write
 791              	.LVL21:
 166:.\7Seg.c      ****             CyDelayUs(Refresh_Time);
 792              		.loc 1 166 0 discriminator 2
 793 005e C820     		mov	r0, #200
ARM GAS  C:\Users\Vit\AppData\Local\Temp\ccx5rvxi.s 			page 18


 794 0060 FFF7FEFF 		bl	CyDelayUs
 795              	.LVL22:
 155:.\7Seg.c      ****     {
 796              		.loc 1 155 0 discriminator 2
 797 0064 2378     		ldrb	r3, [r4]
 798 0066 0133     		add	r3, r3, #1
 799 0068 DBB2     		uxtb	r3, r3
 800 006a 2370     		strb	r3, [r4]
 801              	.L44:
 155:.\7Seg.c      ****     {
 802              		.loc 1 155 0 is_stmt 0 discriminator 1
 803 006c 6B46     		mov	r3, sp
 804 006e 0733     		add	r3, r3, #7
 805 0070 1B78     		ldrb	r3, [r3]
 806 0072 DBB2     		uxtb	r3, r3
 807 0074 032B     		cmp	r3, #3
 808 0076 C9D9     		bls	.L48
 167:.\7Seg.c      ****     }
 168:.\7Seg.c      **** }
 809              		.loc 1 168 0 is_stmt 1
 810 0078 02B0     		add	sp, sp, #8
 811              		@ sp needed
 812 007a 10BD     		pop	{r4, pc}
 813              	.L50:
 814              		.align	2
 815              	.L49:
 816 007c 00000000 		.word	VideoBufer
 817 0080 08020640 		.word	1074135560
 818              		.cfi_endproc
 819              	.LFE39:
 820              		.size	Display_Write_Mem, .-Display_Write_Mem
 821              		.comm	VideoMemory,17,4
 822              		.comm	VideoBufer,4,4
 823              		.global	Font
 824              		.data
 825              		.align	2
 826              		.set	.LANCHOR0,. + 0
 827              		.type	Font, %object
 828              		.size	Font, 10
 829              	Font:
 830 0000 C0       		.byte	-64
 831 0001 F9       		.byte	-7
 832 0002 A4       		.byte	-92
 833 0003 B0       		.byte	-80
 834 0004 99       		.byte	-103
 835 0005 92       		.byte	-110
 836 0006 82       		.byte	-126
 837 0007 F8       		.byte	-8
 838 0008 80       		.byte	-128
 839 0009 90       		.byte	-112
 840 000a 0000     		.text
 841              	.Letext0:
 842              		.file 2 "Generated_Source\\PSoC4/cytypes.h"
 843              		.file 3 "Generated_Source\\PSoC4/SCB_1_SPI_UART.h"
 844              		.file 4 "Generated_Source\\PSoC4/PWM_Mux_Reg.h"
 845              		.file 5 "Generated_Source\\PSoC4/CyLib.h"
 846              		.file 6 "Generated_Source\\PSoC4/LED_SEG_PWM.h"
ARM GAS  C:\Users\Vit\AppData\Local\Temp\ccx5rvxi.s 			page 19

