ARM GAS  C:\DOCUME~1\Remixvit\LOCALS~1\Temp\ccDIv7eo.s 			page 1


   1              		.cpu cortex-m0
   2              		.fpu softvfp
   3              		.eabi_attribute 20, 1
   4              		.eabi_attribute 21, 1
   5              		.eabi_attribute 23, 3
   6              		.eabi_attribute 24, 1
   7              		.eabi_attribute 25, 1
   8              		.eabi_attribute 26, 1
   9              		.eabi_attribute 30, 1
  10              		.eabi_attribute 34, 0
  11              		.eabi_attribute 18, 4
  12              		.code	16
  13              		.file	"SCB_1_SPI.c"
  14              		.text
  15              	.Ltext0:
  16              		.cfi_sections	.debug_frame
  17              		.section	.text.SCB_1_SpiPostEnable,"ax",%progbits
  18              		.align	2
  19              		.global	SCB_1_SpiPostEnable
  20              		.code	16
  21              		.thumb_func
  22              		.type	SCB_1_SpiPostEnable, %function
  23              	SCB_1_SpiPostEnable:
  24              	.LFB1:
  25              		.file 1 ".\\Generated_Source\\PSoC4\\SCB_1_SPI.c"
   1:.\Generated_Source\PSoC4/SCB_1_SPI.c **** /*******************************************************************************
   2:.\Generated_Source\PSoC4/SCB_1_SPI.c **** * File Name: SCB_1_SPI.c
   3:.\Generated_Source\PSoC4/SCB_1_SPI.c **** * Version 3.0
   4:.\Generated_Source\PSoC4/SCB_1_SPI.c **** *
   5:.\Generated_Source\PSoC4/SCB_1_SPI.c **** * Description:
   6:.\Generated_Source\PSoC4/SCB_1_SPI.c **** *  This file provides the source code to the API for the SCB Component in
   7:.\Generated_Source\PSoC4/SCB_1_SPI.c **** *  SPI mode.
   8:.\Generated_Source\PSoC4/SCB_1_SPI.c **** *
   9:.\Generated_Source\PSoC4/SCB_1_SPI.c **** * Note:
  10:.\Generated_Source\PSoC4/SCB_1_SPI.c **** *
  11:.\Generated_Source\PSoC4/SCB_1_SPI.c **** *******************************************************************************
  12:.\Generated_Source\PSoC4/SCB_1_SPI.c **** * Copyright 2013-2015, Cypress Semiconductor Corporation.  All rights reserved.
  13:.\Generated_Source\PSoC4/SCB_1_SPI.c **** * You may use this file only in accordance with the license, terms, conditions,
  14:.\Generated_Source\PSoC4/SCB_1_SPI.c **** * disclaimers, and limitations in the end user license agreement accompanying
  15:.\Generated_Source\PSoC4/SCB_1_SPI.c **** * the software package with which this file was provided.
  16:.\Generated_Source\PSoC4/SCB_1_SPI.c **** *******************************************************************************/
  17:.\Generated_Source\PSoC4/SCB_1_SPI.c **** 
  18:.\Generated_Source\PSoC4/SCB_1_SPI.c **** #include "SCB_1_PVT.h"
  19:.\Generated_Source\PSoC4/SCB_1_SPI.c **** #include "SCB_1_SPI_UART_PVT.h"
  20:.\Generated_Source\PSoC4/SCB_1_SPI.c **** 
  21:.\Generated_Source\PSoC4/SCB_1_SPI.c **** #if(SCB_1_SCB_MODE_UNCONFIG_CONST_CFG)
  22:.\Generated_Source\PSoC4/SCB_1_SPI.c **** 
  23:.\Generated_Source\PSoC4/SCB_1_SPI.c ****     /***************************************
  24:.\Generated_Source\PSoC4/SCB_1_SPI.c ****     *  Configuration Structure Initialization
  25:.\Generated_Source\PSoC4/SCB_1_SPI.c ****     ***************************************/
  26:.\Generated_Source\PSoC4/SCB_1_SPI.c **** 
  27:.\Generated_Source\PSoC4/SCB_1_SPI.c ****     const SCB_1_SPI_INIT_STRUCT SCB_1_configSpi =
  28:.\Generated_Source\PSoC4/SCB_1_SPI.c ****     {
  29:.\Generated_Source\PSoC4/SCB_1_SPI.c ****         SCB_1_SPI_MODE,
  30:.\Generated_Source\PSoC4/SCB_1_SPI.c ****         SCB_1_SPI_SUB_MODE,
  31:.\Generated_Source\PSoC4/SCB_1_SPI.c ****         SCB_1_SPI_CLOCK_MODE,
  32:.\Generated_Source\PSoC4/SCB_1_SPI.c ****         SCB_1_SPI_OVS_FACTOR,
ARM GAS  C:\DOCUME~1\Remixvit\LOCALS~1\Temp\ccDIv7eo.s 			page 2


  33:.\Generated_Source\PSoC4/SCB_1_SPI.c ****         SCB_1_SPI_MEDIAN_FILTER_ENABLE,
  34:.\Generated_Source\PSoC4/SCB_1_SPI.c ****         SCB_1_SPI_LATE_MISO_SAMPLE_ENABLE,
  35:.\Generated_Source\PSoC4/SCB_1_SPI.c ****         SCB_1_SPI_WAKE_ENABLE,
  36:.\Generated_Source\PSoC4/SCB_1_SPI.c ****         SCB_1_SPI_RX_DATA_BITS_NUM,
  37:.\Generated_Source\PSoC4/SCB_1_SPI.c ****         SCB_1_SPI_TX_DATA_BITS_NUM,
  38:.\Generated_Source\PSoC4/SCB_1_SPI.c ****         SCB_1_SPI_BITS_ORDER,
  39:.\Generated_Source\PSoC4/SCB_1_SPI.c ****         SCB_1_SPI_TRANSFER_SEPARATION,
  40:.\Generated_Source\PSoC4/SCB_1_SPI.c ****         0u,
  41:.\Generated_Source\PSoC4/SCB_1_SPI.c ****         NULL,
  42:.\Generated_Source\PSoC4/SCB_1_SPI.c ****         0u,
  43:.\Generated_Source\PSoC4/SCB_1_SPI.c ****         NULL,
  44:.\Generated_Source\PSoC4/SCB_1_SPI.c ****         (uint32) SCB_1_SCB_IRQ_INTERNAL,
  45:.\Generated_Source\PSoC4/SCB_1_SPI.c ****         SCB_1_SPI_INTR_RX_MASK,
  46:.\Generated_Source\PSoC4/SCB_1_SPI.c ****         SCB_1_SPI_RX_TRIGGER_LEVEL,
  47:.\Generated_Source\PSoC4/SCB_1_SPI.c ****         SCB_1_SPI_INTR_TX_MASK,
  48:.\Generated_Source\PSoC4/SCB_1_SPI.c ****         SCB_1_SPI_TX_TRIGGER_LEVEL,
  49:.\Generated_Source\PSoC4/SCB_1_SPI.c ****         (uint8) SCB_1_SPI_BYTE_MODE_ENABLE,
  50:.\Generated_Source\PSoC4/SCB_1_SPI.c ****         (uint8) SCB_1_SPI_FREE_RUN_SCLK_ENABLE,
  51:.\Generated_Source\PSoC4/SCB_1_SPI.c ****         (uint8) SCB_1_SPI_SS_POLARITY
  52:.\Generated_Source\PSoC4/SCB_1_SPI.c ****     };
  53:.\Generated_Source\PSoC4/SCB_1_SPI.c **** 
  54:.\Generated_Source\PSoC4/SCB_1_SPI.c **** 
  55:.\Generated_Source\PSoC4/SCB_1_SPI.c ****     /*******************************************************************************
  56:.\Generated_Source\PSoC4/SCB_1_SPI.c ****     * Function Name: SCB_1_SpiInit
  57:.\Generated_Source\PSoC4/SCB_1_SPI.c ****     ********************************************************************************
  58:.\Generated_Source\PSoC4/SCB_1_SPI.c ****     *
  59:.\Generated_Source\PSoC4/SCB_1_SPI.c ****     * Summary:
  60:.\Generated_Source\PSoC4/SCB_1_SPI.c ****     *  Configures the SCB for the SPI operation.
  61:.\Generated_Source\PSoC4/SCB_1_SPI.c ****     *
  62:.\Generated_Source\PSoC4/SCB_1_SPI.c ****     * Parameters:
  63:.\Generated_Source\PSoC4/SCB_1_SPI.c ****     *  config:  Pointer to a structure that contains the following ordered list of
  64:.\Generated_Source\PSoC4/SCB_1_SPI.c ****     *           fields. These fields match the selections available in the
  65:.\Generated_Source\PSoC4/SCB_1_SPI.c ****     *           customizer.
  66:.\Generated_Source\PSoC4/SCB_1_SPI.c ****     *
  67:.\Generated_Source\PSoC4/SCB_1_SPI.c ****     * Return:
  68:.\Generated_Source\PSoC4/SCB_1_SPI.c ****     *  None
  69:.\Generated_Source\PSoC4/SCB_1_SPI.c ****     *
  70:.\Generated_Source\PSoC4/SCB_1_SPI.c ****     *******************************************************************************/
  71:.\Generated_Source\PSoC4/SCB_1_SPI.c ****     void SCB_1_SpiInit(const SCB_1_SPI_INIT_STRUCT *config)
  72:.\Generated_Source\PSoC4/SCB_1_SPI.c ****     {
  73:.\Generated_Source\PSoC4/SCB_1_SPI.c ****         if(NULL == config)
  74:.\Generated_Source\PSoC4/SCB_1_SPI.c ****         {
  75:.\Generated_Source\PSoC4/SCB_1_SPI.c ****             CYASSERT(0u != 0u); /* Halt execution due to bad function parameter */
  76:.\Generated_Source\PSoC4/SCB_1_SPI.c ****         }
  77:.\Generated_Source\PSoC4/SCB_1_SPI.c ****         else
  78:.\Generated_Source\PSoC4/SCB_1_SPI.c ****         {
  79:.\Generated_Source\PSoC4/SCB_1_SPI.c ****             /* Configure pins */
  80:.\Generated_Source\PSoC4/SCB_1_SPI.c ****             SCB_1_SetPins(SCB_1_SCB_MODE_SPI, config->mode, SCB_1_DUMMY_PARAM);
  81:.\Generated_Source\PSoC4/SCB_1_SPI.c **** 
  82:.\Generated_Source\PSoC4/SCB_1_SPI.c ****             /* Store internal configuration */
  83:.\Generated_Source\PSoC4/SCB_1_SPI.c ****             SCB_1_scbMode       = (uint8) SCB_1_SCB_MODE_SPI;
  84:.\Generated_Source\PSoC4/SCB_1_SPI.c ****             SCB_1_scbEnableWake = (uint8) config->enableWake;
  85:.\Generated_Source\PSoC4/SCB_1_SPI.c ****             SCB_1_scbEnableIntr = (uint8) config->enableInterrupt;
  86:.\Generated_Source\PSoC4/SCB_1_SPI.c **** 
  87:.\Generated_Source\PSoC4/SCB_1_SPI.c ****             /* Set RX direction internal variables */
  88:.\Generated_Source\PSoC4/SCB_1_SPI.c ****             SCB_1_rxBuffer      =         config->rxBuffer;
  89:.\Generated_Source\PSoC4/SCB_1_SPI.c ****             SCB_1_rxDataBits    = (uint8) config->rxDataBits;
ARM GAS  C:\DOCUME~1\Remixvit\LOCALS~1\Temp\ccDIv7eo.s 			page 3


  90:.\Generated_Source\PSoC4/SCB_1_SPI.c ****             SCB_1_rxBufferSize  = (uint8) config->rxBufferSize;
  91:.\Generated_Source\PSoC4/SCB_1_SPI.c **** 
  92:.\Generated_Source\PSoC4/SCB_1_SPI.c ****             /* Set TX direction internal variables */
  93:.\Generated_Source\PSoC4/SCB_1_SPI.c ****             SCB_1_txBuffer      =         config->txBuffer;
  94:.\Generated_Source\PSoC4/SCB_1_SPI.c ****             SCB_1_txDataBits    = (uint8) config->txDataBits;
  95:.\Generated_Source\PSoC4/SCB_1_SPI.c ****             SCB_1_txBufferSize  = (uint8) config->txBufferSize;
  96:.\Generated_Source\PSoC4/SCB_1_SPI.c **** 
  97:.\Generated_Source\PSoC4/SCB_1_SPI.c ****             /* Configure SPI interface */
  98:.\Generated_Source\PSoC4/SCB_1_SPI.c ****             SCB_1_CTRL_REG     = SCB_1_GET_CTRL_OVS(config->oversample)           |
  99:.\Generated_Source\PSoC4/SCB_1_SPI.c ****                                             SCB_1_GET_CTRL_BYTE_MODE(config->enableByteMode) |
 100:.\Generated_Source\PSoC4/SCB_1_SPI.c ****                                             SCB_1_GET_CTRL_EC_AM_MODE(config->enableWake)    |
 101:.\Generated_Source\PSoC4/SCB_1_SPI.c ****                                             SCB_1_CTRL_SPI;
 102:.\Generated_Source\PSoC4/SCB_1_SPI.c **** 
 103:.\Generated_Source\PSoC4/SCB_1_SPI.c ****             SCB_1_SPI_CTRL_REG = SCB_1_GET_SPI_CTRL_CONTINUOUS    (config->transferSeperation)  |
 104:.\Generated_Source\PSoC4/SCB_1_SPI.c ****                                             SCB_1_GET_SPI_CTRL_SELECT_PRECEDE(config->submode &
 105:.\Generated_Source\PSoC4/SCB_1_SPI.c ****                                                                           SCB_1_SPI_MODE_TI_PRECEDE
 106:.\Generated_Source\PSoC4/SCB_1_SPI.c ****                                             SCB_1_GET_SPI_CTRL_SCLK_MODE     (config->sclkMode)    
 107:.\Generated_Source\PSoC4/SCB_1_SPI.c ****                                             SCB_1_GET_SPI_CTRL_LATE_MISO_SAMPLE(config->enableLateS
 108:.\Generated_Source\PSoC4/SCB_1_SPI.c ****                                             SCB_1_GET_SPI_CTRL_SCLK_CONTINUOUS(config->enableFreeRu
 109:.\Generated_Source\PSoC4/SCB_1_SPI.c ****                                             SCB_1_GET_SPI_CTRL_SSEL_POLARITY (config->polaritySs)  
 110:.\Generated_Source\PSoC4/SCB_1_SPI.c ****                                             SCB_1_GET_SPI_CTRL_SUB_MODE      (config->submode)     
 111:.\Generated_Source\PSoC4/SCB_1_SPI.c ****                                             SCB_1_GET_SPI_CTRL_MASTER_MODE   (config->mode);
 112:.\Generated_Source\PSoC4/SCB_1_SPI.c **** 
 113:.\Generated_Source\PSoC4/SCB_1_SPI.c ****             /* Configure RX direction */
 114:.\Generated_Source\PSoC4/SCB_1_SPI.c ****             SCB_1_RX_CTRL_REG     =  SCB_1_GET_RX_CTRL_DATA_WIDTH(config->rxDataBits)         |
 115:.\Generated_Source\PSoC4/SCB_1_SPI.c ****                                                 SCB_1_GET_RX_CTRL_BIT_ORDER (config->bitOrder)     
 116:.\Generated_Source\PSoC4/SCB_1_SPI.c ****                                                 SCB_1_GET_RX_CTRL_MEDIAN    (config->enableMedianFi
 117:.\Generated_Source\PSoC4/SCB_1_SPI.c ****                                                 SCB_1_SPI_RX_CTRL;
 118:.\Generated_Source\PSoC4/SCB_1_SPI.c **** 
 119:.\Generated_Source\PSoC4/SCB_1_SPI.c ****             SCB_1_RX_FIFO_CTRL_REG = SCB_1_GET_RX_FIFO_CTRL_TRIGGER_LEVEL(config->rxTriggerLevel);
 120:.\Generated_Source\PSoC4/SCB_1_SPI.c **** 
 121:.\Generated_Source\PSoC4/SCB_1_SPI.c ****             /* Configure TX direction */
 122:.\Generated_Source\PSoC4/SCB_1_SPI.c ****             SCB_1_TX_CTRL_REG      = SCB_1_GET_TX_CTRL_DATA_WIDTH(config->txDataBits) |
 123:.\Generated_Source\PSoC4/SCB_1_SPI.c ****                                                 SCB_1_GET_TX_CTRL_BIT_ORDER (config->bitOrder)   |
 124:.\Generated_Source\PSoC4/SCB_1_SPI.c ****                                                 SCB_1_SPI_TX_CTRL;
 125:.\Generated_Source\PSoC4/SCB_1_SPI.c **** 
 126:.\Generated_Source\PSoC4/SCB_1_SPI.c ****             SCB_1_TX_FIFO_CTRL_REG = SCB_1_GET_TX_FIFO_CTRL_TRIGGER_LEVEL(config->txTriggerLevel);
 127:.\Generated_Source\PSoC4/SCB_1_SPI.c **** 
 128:.\Generated_Source\PSoC4/SCB_1_SPI.c ****             /* Configure interrupt with SPI handler but do not enable it */
 129:.\Generated_Source\PSoC4/SCB_1_SPI.c ****             CyIntDisable    (SCB_1_ISR_NUMBER);
 130:.\Generated_Source\PSoC4/SCB_1_SPI.c ****             CyIntSetPriority(SCB_1_ISR_NUMBER, SCB_1_ISR_PRIORITY);
 131:.\Generated_Source\PSoC4/SCB_1_SPI.c ****             (void) CyIntSetVector(SCB_1_ISR_NUMBER, &SCB_1_SPI_UART_ISR);
 132:.\Generated_Source\PSoC4/SCB_1_SPI.c **** 
 133:.\Generated_Source\PSoC4/SCB_1_SPI.c ****             /* Configure interrupt sources */
 134:.\Generated_Source\PSoC4/SCB_1_SPI.c ****             SCB_1_INTR_I2C_EC_MASK_REG = SCB_1_NO_INTR_SOURCES;
 135:.\Generated_Source\PSoC4/SCB_1_SPI.c ****             SCB_1_INTR_SPI_EC_MASK_REG = SCB_1_NO_INTR_SOURCES;
 136:.\Generated_Source\PSoC4/SCB_1_SPI.c ****             SCB_1_INTR_SLAVE_MASK_REG  = SCB_1_GET_SPI_INTR_SLAVE_MASK(config->rxInterruptMask);
 137:.\Generated_Source\PSoC4/SCB_1_SPI.c ****             SCB_1_INTR_MASTER_MASK_REG = SCB_1_GET_SPI_INTR_MASTER_MASK(config->txInterruptMask);
 138:.\Generated_Source\PSoC4/SCB_1_SPI.c ****             SCB_1_INTR_RX_MASK_REG     = SCB_1_GET_SPI_INTR_RX_MASK(config->rxInterruptMask);
 139:.\Generated_Source\PSoC4/SCB_1_SPI.c ****             SCB_1_INTR_TX_MASK_REG     = SCB_1_GET_SPI_INTR_TX_MASK(config->txInterruptMask);
 140:.\Generated_Source\PSoC4/SCB_1_SPI.c **** 
 141:.\Generated_Source\PSoC4/SCB_1_SPI.c ****             /* Set active SS0 */
 142:.\Generated_Source\PSoC4/SCB_1_SPI.c ****             SCB_1_SpiSetActiveSlaveSelect(SCB_1_SPI_SLAVE_SELECT0);
 143:.\Generated_Source\PSoC4/SCB_1_SPI.c **** 
 144:.\Generated_Source\PSoC4/SCB_1_SPI.c ****             /* Clear RX buffer indexes */
 145:.\Generated_Source\PSoC4/SCB_1_SPI.c ****             SCB_1_rxBufferHead     = 0u;
 146:.\Generated_Source\PSoC4/SCB_1_SPI.c ****             SCB_1_rxBufferTail     = 0u;
ARM GAS  C:\DOCUME~1\Remixvit\LOCALS~1\Temp\ccDIv7eo.s 			page 4


 147:.\Generated_Source\PSoC4/SCB_1_SPI.c ****             SCB_1_rxBufferOverflow = 0u;
 148:.\Generated_Source\PSoC4/SCB_1_SPI.c **** 
 149:.\Generated_Source\PSoC4/SCB_1_SPI.c ****             /* Clear TX buffer indexes */
 150:.\Generated_Source\PSoC4/SCB_1_SPI.c ****             SCB_1_txBufferHead = 0u;
 151:.\Generated_Source\PSoC4/SCB_1_SPI.c ****             SCB_1_txBufferTail = 0u;
 152:.\Generated_Source\PSoC4/SCB_1_SPI.c ****         }
 153:.\Generated_Source\PSoC4/SCB_1_SPI.c ****     }
 154:.\Generated_Source\PSoC4/SCB_1_SPI.c **** 
 155:.\Generated_Source\PSoC4/SCB_1_SPI.c **** #else
 156:.\Generated_Source\PSoC4/SCB_1_SPI.c **** 
 157:.\Generated_Source\PSoC4/SCB_1_SPI.c ****     /*******************************************************************************
 158:.\Generated_Source\PSoC4/SCB_1_SPI.c ****     * Function Name: SCB_1_SpiInit
 159:.\Generated_Source\PSoC4/SCB_1_SPI.c ****     ********************************************************************************
 160:.\Generated_Source\PSoC4/SCB_1_SPI.c ****     *
 161:.\Generated_Source\PSoC4/SCB_1_SPI.c ****     * Summary:
 162:.\Generated_Source\PSoC4/SCB_1_SPI.c ****     *  Configures the SCB for the SPI operation.
 163:.\Generated_Source\PSoC4/SCB_1_SPI.c ****     *
 164:.\Generated_Source\PSoC4/SCB_1_SPI.c ****     * Parameters:
 165:.\Generated_Source\PSoC4/SCB_1_SPI.c ****     *  None
 166:.\Generated_Source\PSoC4/SCB_1_SPI.c ****     *
 167:.\Generated_Source\PSoC4/SCB_1_SPI.c ****     * Return:
 168:.\Generated_Source\PSoC4/SCB_1_SPI.c ****     *  None
 169:.\Generated_Source\PSoC4/SCB_1_SPI.c ****     *
 170:.\Generated_Source\PSoC4/SCB_1_SPI.c ****     *******************************************************************************/
 171:.\Generated_Source\PSoC4/SCB_1_SPI.c ****     void SCB_1_SpiInit(void)
 172:.\Generated_Source\PSoC4/SCB_1_SPI.c ****     {
 173:.\Generated_Source\PSoC4/SCB_1_SPI.c ****         /* Configure SPI interface */
 174:.\Generated_Source\PSoC4/SCB_1_SPI.c ****         SCB_1_CTRL_REG     = SCB_1_SPI_DEFAULT_CTRL;
 175:.\Generated_Source\PSoC4/SCB_1_SPI.c ****         SCB_1_SPI_CTRL_REG = SCB_1_SPI_DEFAULT_SPI_CTRL;
 176:.\Generated_Source\PSoC4/SCB_1_SPI.c **** 
 177:.\Generated_Source\PSoC4/SCB_1_SPI.c ****         /* Configure TX and RX direction */
 178:.\Generated_Source\PSoC4/SCB_1_SPI.c ****         SCB_1_RX_CTRL_REG      = SCB_1_SPI_DEFAULT_RX_CTRL;
 179:.\Generated_Source\PSoC4/SCB_1_SPI.c ****         SCB_1_RX_FIFO_CTRL_REG = SCB_1_SPI_DEFAULT_RX_FIFO_CTRL;
 180:.\Generated_Source\PSoC4/SCB_1_SPI.c **** 
 181:.\Generated_Source\PSoC4/SCB_1_SPI.c ****         /* Configure TX and RX direction */
 182:.\Generated_Source\PSoC4/SCB_1_SPI.c ****         SCB_1_TX_CTRL_REG      = SCB_1_SPI_DEFAULT_TX_CTRL;
 183:.\Generated_Source\PSoC4/SCB_1_SPI.c ****         SCB_1_TX_FIFO_CTRL_REG = SCB_1_SPI_DEFAULT_TX_FIFO_CTRL;
 184:.\Generated_Source\PSoC4/SCB_1_SPI.c **** 
 185:.\Generated_Source\PSoC4/SCB_1_SPI.c ****         /* Configure interrupt with SPI handler but do not enable it */
 186:.\Generated_Source\PSoC4/SCB_1_SPI.c ****     #if(SCB_1_SCB_IRQ_INTERNAL)
 187:.\Generated_Source\PSoC4/SCB_1_SPI.c ****             CyIntDisable    (SCB_1_ISR_NUMBER);
 188:.\Generated_Source\PSoC4/SCB_1_SPI.c ****             CyIntSetPriority(SCB_1_ISR_NUMBER, SCB_1_ISR_PRIORITY);
 189:.\Generated_Source\PSoC4/SCB_1_SPI.c ****             (void) CyIntSetVector(SCB_1_ISR_NUMBER, &SCB_1_SPI_UART_ISR);
 190:.\Generated_Source\PSoC4/SCB_1_SPI.c ****     #endif /* (SCB_1_SCB_IRQ_INTERNAL) */
 191:.\Generated_Source\PSoC4/SCB_1_SPI.c **** 
 192:.\Generated_Source\PSoC4/SCB_1_SPI.c ****         /* Configure interrupt sources */
 193:.\Generated_Source\PSoC4/SCB_1_SPI.c ****         SCB_1_INTR_I2C_EC_MASK_REG = SCB_1_SPI_DEFAULT_INTR_I2C_EC_MASK;
 194:.\Generated_Source\PSoC4/SCB_1_SPI.c ****         SCB_1_INTR_SPI_EC_MASK_REG = SCB_1_SPI_DEFAULT_INTR_SPI_EC_MASK;
 195:.\Generated_Source\PSoC4/SCB_1_SPI.c ****         SCB_1_INTR_SLAVE_MASK_REG  = SCB_1_SPI_DEFAULT_INTR_SLAVE_MASK;
 196:.\Generated_Source\PSoC4/SCB_1_SPI.c ****         SCB_1_INTR_MASTER_MASK_REG = SCB_1_SPI_DEFAULT_INTR_MASTER_MASK;
 197:.\Generated_Source\PSoC4/SCB_1_SPI.c ****         SCB_1_INTR_RX_MASK_REG     = SCB_1_SPI_DEFAULT_INTR_RX_MASK;
 198:.\Generated_Source\PSoC4/SCB_1_SPI.c ****         SCB_1_INTR_TX_MASK_REG     = SCB_1_SPI_DEFAULT_INTR_TX_MASK;
 199:.\Generated_Source\PSoC4/SCB_1_SPI.c **** 
 200:.\Generated_Source\PSoC4/SCB_1_SPI.c ****         /* Set active SS0 for master */
 201:.\Generated_Source\PSoC4/SCB_1_SPI.c ****     #if (SCB_1_SPI_MASTER_CONST)
 202:.\Generated_Source\PSoC4/SCB_1_SPI.c ****         SCB_1_SpiSetActiveSlaveSelect(SCB_1_SPI_SLAVE_SELECT0);
 203:.\Generated_Source\PSoC4/SCB_1_SPI.c ****     #endif /* (SCB_1_SPI_MASTER_CONST) */
ARM GAS  C:\DOCUME~1\Remixvit\LOCALS~1\Temp\ccDIv7eo.s 			page 5


 204:.\Generated_Source\PSoC4/SCB_1_SPI.c **** 
 205:.\Generated_Source\PSoC4/SCB_1_SPI.c ****     #if(SCB_1_INTERNAL_RX_SW_BUFFER_CONST)
 206:.\Generated_Source\PSoC4/SCB_1_SPI.c ****         SCB_1_rxBufferHead     = 0u;
 207:.\Generated_Source\PSoC4/SCB_1_SPI.c ****         SCB_1_rxBufferTail     = 0u;
 208:.\Generated_Source\PSoC4/SCB_1_SPI.c ****         SCB_1_rxBufferOverflow = 0u;
 209:.\Generated_Source\PSoC4/SCB_1_SPI.c ****     #endif /* (SCB_1_INTERNAL_RX_SW_BUFFER_CONST) */
 210:.\Generated_Source\PSoC4/SCB_1_SPI.c **** 
 211:.\Generated_Source\PSoC4/SCB_1_SPI.c ****     #if(SCB_1_INTERNAL_TX_SW_BUFFER_CONST)
 212:.\Generated_Source\PSoC4/SCB_1_SPI.c ****         SCB_1_txBufferHead = 0u;
 213:.\Generated_Source\PSoC4/SCB_1_SPI.c ****         SCB_1_txBufferTail = 0u;
 214:.\Generated_Source\PSoC4/SCB_1_SPI.c ****     #endif /* (SCB_1_INTERNAL_TX_SW_BUFFER_CONST) */
 215:.\Generated_Source\PSoC4/SCB_1_SPI.c ****     }
 216:.\Generated_Source\PSoC4/SCB_1_SPI.c **** #endif /* (SCB_1_SCB_MODE_UNCONFIG_CONST_CFG) */
 217:.\Generated_Source\PSoC4/SCB_1_SPI.c **** 
 218:.\Generated_Source\PSoC4/SCB_1_SPI.c **** 
 219:.\Generated_Source\PSoC4/SCB_1_SPI.c **** /*******************************************************************************
 220:.\Generated_Source\PSoC4/SCB_1_SPI.c **** * Function Name: SCB_1_SpiPostEnable
 221:.\Generated_Source\PSoC4/SCB_1_SPI.c **** ********************************************************************************
 222:.\Generated_Source\PSoC4/SCB_1_SPI.c **** *
 223:.\Generated_Source\PSoC4/SCB_1_SPI.c **** * Summary:
 224:.\Generated_Source\PSoC4/SCB_1_SPI.c **** *  Restores HSIOM settings for the SPI master output pins (SCLK and/or SS0-SS3) 
 225:.\Generated_Source\PSoC4/SCB_1_SPI.c **** *  to be controlled by the SCB SPI.
 226:.\Generated_Source\PSoC4/SCB_1_SPI.c **** *
 227:.\Generated_Source\PSoC4/SCB_1_SPI.c **** * Parameters:
 228:.\Generated_Source\PSoC4/SCB_1_SPI.c **** *  None
 229:.\Generated_Source\PSoC4/SCB_1_SPI.c **** *
 230:.\Generated_Source\PSoC4/SCB_1_SPI.c **** * Return:
 231:.\Generated_Source\PSoC4/SCB_1_SPI.c **** *  None
 232:.\Generated_Source\PSoC4/SCB_1_SPI.c **** *
 233:.\Generated_Source\PSoC4/SCB_1_SPI.c **** *******************************************************************************/
 234:.\Generated_Source\PSoC4/SCB_1_SPI.c **** void SCB_1_SpiPostEnable(void)
 235:.\Generated_Source\PSoC4/SCB_1_SPI.c **** {
  26              		.loc 1 235 0
  27              		.cfi_startproc
 236:.\Generated_Source\PSoC4/SCB_1_SPI.c **** #if(SCB_1_SCB_MODE_UNCONFIG_CONST_CFG)
 237:.\Generated_Source\PSoC4/SCB_1_SPI.c **** 
 238:.\Generated_Source\PSoC4/SCB_1_SPI.c ****     if (SCB_1_CHECK_SPI_MASTER)
 239:.\Generated_Source\PSoC4/SCB_1_SPI.c ****     {
 240:.\Generated_Source\PSoC4/SCB_1_SPI.c ****     #if (SCB_1_SCLK_PIN)
 241:.\Generated_Source\PSoC4/SCB_1_SPI.c ****         /* Set SCB SPI to drive output pin */
 242:.\Generated_Source\PSoC4/SCB_1_SPI.c ****         SCB_1_SET_HSIOM_SEL(SCB_1_SCLK_HSIOM_REG, SCB_1_SCLK_HSIOM_MASK,
 243:.\Generated_Source\PSoC4/SCB_1_SPI.c ****                                        SCB_1_SCLK_HSIOM_POS, SCB_1_HSIOM_SPI_SEL);
 244:.\Generated_Source\PSoC4/SCB_1_SPI.c ****     #endif /* (SCB_1_SCLK_PIN) */
 245:.\Generated_Source\PSoC4/SCB_1_SPI.c **** 
 246:.\Generated_Source\PSoC4/SCB_1_SPI.c ****     #if (SCB_1_SS0_PIN)
 247:.\Generated_Source\PSoC4/SCB_1_SPI.c ****         /* Set SCB SPI to drive output pin */
 248:.\Generated_Source\PSoC4/SCB_1_SPI.c ****         SCB_1_SET_HSIOM_SEL(SCB_1_SS0_HSIOM_REG, SCB_1_SS0_HSIOM_MASK,
 249:.\Generated_Source\PSoC4/SCB_1_SPI.c ****                                        SCB_1_SS0_HSIOM_POS, SCB_1_HSIOM_SPI_SEL);
 250:.\Generated_Source\PSoC4/SCB_1_SPI.c ****     #endif /* (SCB_1_SS0_PIN) */
 251:.\Generated_Source\PSoC4/SCB_1_SPI.c **** 
 252:.\Generated_Source\PSoC4/SCB_1_SPI.c ****     #if (SCB_1_SS1_PIN)
 253:.\Generated_Source\PSoC4/SCB_1_SPI.c ****         /* Set SCB SPI to drive output pin */
 254:.\Generated_Source\PSoC4/SCB_1_SPI.c ****         SCB_1_SET_HSIOM_SEL(SCB_1_SS1_HSIOM_REG, SCB_1_SS1_HSIOM_MASK,
 255:.\Generated_Source\PSoC4/SCB_1_SPI.c ****                                        SCB_1_SS1_HSIOM_POS, SCB_1_HSIOM_SPI_SEL);
 256:.\Generated_Source\PSoC4/SCB_1_SPI.c ****     #endif /* (SCB_1_SS1_PIN) */
 257:.\Generated_Source\PSoC4/SCB_1_SPI.c **** 
 258:.\Generated_Source\PSoC4/SCB_1_SPI.c ****     #if (SCB_1_SS2_PIN)
ARM GAS  C:\DOCUME~1\Remixvit\LOCALS~1\Temp\ccDIv7eo.s 			page 6


 259:.\Generated_Source\PSoC4/SCB_1_SPI.c ****         /* Set SCB SPI to drive output pin */
 260:.\Generated_Source\PSoC4/SCB_1_SPI.c ****         SCB_1_SET_HSIOM_SEL(SCB_1_SS2_HSIOM_REG, SCB_1_SS2_HSIOM_MASK,
 261:.\Generated_Source\PSoC4/SCB_1_SPI.c ****                                        SCB_1_SS2_HSIOM_POS, SCB_1_HSIOM_SPI_SEL);
 262:.\Generated_Source\PSoC4/SCB_1_SPI.c ****     #endif /* (SCB_1_SS2_PIN) */
 263:.\Generated_Source\PSoC4/SCB_1_SPI.c **** 
 264:.\Generated_Source\PSoC4/SCB_1_SPI.c ****     #if (SCB_1_SS3_PIN)
 265:.\Generated_Source\PSoC4/SCB_1_SPI.c ****         /* Set SCB SPI to drive output pin */
 266:.\Generated_Source\PSoC4/SCB_1_SPI.c ****         SCB_1_SET_HSIOM_SEL(SCB_1_SS3_HSIOM_REG, SCB_1_SS3_HSIOM_MASK,
 267:.\Generated_Source\PSoC4/SCB_1_SPI.c ****                                        SCB_1_SS3_HSIOM_POS, SCB_1_HSIOM_SPI_SEL);
 268:.\Generated_Source\PSoC4/SCB_1_SPI.c ****     #endif /* (SCB_1_SS3_PIN) */
 269:.\Generated_Source\PSoC4/SCB_1_SPI.c ****     }
 270:.\Generated_Source\PSoC4/SCB_1_SPI.c **** 
 271:.\Generated_Source\PSoC4/SCB_1_SPI.c **** #else
 272:.\Generated_Source\PSoC4/SCB_1_SPI.c **** 
 273:.\Generated_Source\PSoC4/SCB_1_SPI.c **** #if (SCB_1_SPI_MASTER_SCLK_PIN)
 274:.\Generated_Source\PSoC4/SCB_1_SPI.c ****     /* Set SCB SPI to drive output pin */
 275:.\Generated_Source\PSoC4/SCB_1_SPI.c ****     SCB_1_SET_HSIOM_SEL(SCB_1_SCLK_M_HSIOM_REG, SCB_1_SCLK_M_HSIOM_MASK,
  28              		.loc 1 275 0
  29 0000 084B     		ldr	r3, .L2
  30 0002 1A68     		ldr	r2, [r3]
  31 0004 F021     		mov	r1, #240
  32 0006 0901     		lsl	r1, r1, #4
  33 0008 0A43     		orr	r2, r1
  34 000a 1A60     		str	r2, [r3]
 276:.\Generated_Source\PSoC4/SCB_1_SPI.c ****                                    SCB_1_SCLK_M_HSIOM_POS, SCB_1_HSIOM_SPI_SEL);
 277:.\Generated_Source\PSoC4/SCB_1_SPI.c **** #endif /* (SCB_1_MISO_SDA_TX_PIN_PIN) */
 278:.\Generated_Source\PSoC4/SCB_1_SPI.c **** 
 279:.\Generated_Source\PSoC4/SCB_1_SPI.c **** #if (SCB_1_SPI_MASTER_SS0_PIN)
 280:.\Generated_Source\PSoC4/SCB_1_SPI.c ****     /* Set SCB SPI to drive output pin */
 281:.\Generated_Source\PSoC4/SCB_1_SPI.c ****     SCB_1_SET_HSIOM_SEL(SCB_1_SS0_M_HSIOM_REG, SCB_1_SS0_M_HSIOM_MASK,
  35              		.loc 1 281 0
  36 000c 1A68     		ldr	r2, [r3]
  37 000e F021     		mov	r1, #240
  38 0010 0902     		lsl	r1, r1, #8
  39 0012 0A43     		orr	r2, r1
  40 0014 1A60     		str	r2, [r3]
 282:.\Generated_Source\PSoC4/SCB_1_SPI.c ****                                    SCB_1_SS0_M_HSIOM_POS, SCB_1_HSIOM_SPI_SEL);
 283:.\Generated_Source\PSoC4/SCB_1_SPI.c **** #endif /* (SCB_1_SPI_MASTER_SS0_PIN) */
 284:.\Generated_Source\PSoC4/SCB_1_SPI.c **** 
 285:.\Generated_Source\PSoC4/SCB_1_SPI.c **** #if (SCB_1_SPI_MASTER_SS1_PIN)
 286:.\Generated_Source\PSoC4/SCB_1_SPI.c ****     /* Set SCB SPI to drive output pin */
 287:.\Generated_Source\PSoC4/SCB_1_SPI.c ****     SCB_1_SET_HSIOM_SEL(SCB_1_SS1_M_HSIOM_REG, SCB_1_SS1_M_HSIOM_MASK,
  41              		.loc 1 287 0
  42 0016 044A     		ldr	r2, .L2+4
  43 0018 1168     		ldr	r1, [r2]
  44 001a 0F23     		mov	r3, #15
  45 001c 0B43     		orr	r3, r1
  46 001e 1360     		str	r3, [r2]
 288:.\Generated_Source\PSoC4/SCB_1_SPI.c ****                                    SCB_1_SS1_M_HSIOM_POS, SCB_1_HSIOM_SPI_SEL);
 289:.\Generated_Source\PSoC4/SCB_1_SPI.c **** #endif /* (SCB_1_SPI_MASTER_SS1_PIN) */
 290:.\Generated_Source\PSoC4/SCB_1_SPI.c **** 
 291:.\Generated_Source\PSoC4/SCB_1_SPI.c **** #if (SCB_1_SPI_MASTER_SS2_PIN)
 292:.\Generated_Source\PSoC4/SCB_1_SPI.c ****     /* Set SCB SPI to drive output pin */
 293:.\Generated_Source\PSoC4/SCB_1_SPI.c ****     SCB_1_SET_HSIOM_SEL(SCB_1_SS2_M_HSIOM_REG, SCB_1_SS2_M_HSIOM_MASK,
 294:.\Generated_Source\PSoC4/SCB_1_SPI.c ****                                    SCB_1_SS2_M_HSIOM_POS, SCB_1_HSIOM_SPI_SEL);
 295:.\Generated_Source\PSoC4/SCB_1_SPI.c **** #endif /* (SCB_1_SPI_MASTER_SS2_PIN) */
 296:.\Generated_Source\PSoC4/SCB_1_SPI.c **** 
ARM GAS  C:\DOCUME~1\Remixvit\LOCALS~1\Temp\ccDIv7eo.s 			page 7


 297:.\Generated_Source\PSoC4/SCB_1_SPI.c **** #if (SCB_1_SPI_MASTER_SS3_PIN)
 298:.\Generated_Source\PSoC4/SCB_1_SPI.c ****     /* Set SCB SPI to drive output pin */
 299:.\Generated_Source\PSoC4/SCB_1_SPI.c ****     SCB_1_SET_HSIOM_SEL(SCB_1_SS3_M_HSIOM_REG, SCB_1_SS3_M_HSIOM_MASK,
 300:.\Generated_Source\PSoC4/SCB_1_SPI.c ****                                    SCB_1_SS3_M_HSIOM_POS, SCB_1_HSIOM_SPI_SEL);
 301:.\Generated_Source\PSoC4/SCB_1_SPI.c **** #endif /* (SCB_1_SPI_MASTER_SS3_PIN) */
 302:.\Generated_Source\PSoC4/SCB_1_SPI.c **** 
 303:.\Generated_Source\PSoC4/SCB_1_SPI.c **** #endif /* (SCB_1_SCB_MODE_UNCONFIG_CONST_CFG) */
 304:.\Generated_Source\PSoC4/SCB_1_SPI.c **** }
  47              		.loc 1 304 0
  48              		@ sp needed
  49 0020 7047     		bx	lr
  50              	.L3:
  51 0022 C046     		.align	2
  52              	.L2:
  53 0024 10000140 		.word	1073807376
  54 0028 00000140 		.word	1073807360
  55              		.cfi_endproc
  56              	.LFE1:
  57              		.size	SCB_1_SpiPostEnable, .-SCB_1_SpiPostEnable
  58              		.section	.text.SCB_1_SpiStop,"ax",%progbits
  59              		.align	2
  60              		.global	SCB_1_SpiStop
  61              		.code	16
  62              		.thumb_func
  63              		.type	SCB_1_SpiStop, %function
  64              	SCB_1_SpiStop:
  65              	.LFB2:
 305:.\Generated_Source\PSoC4/SCB_1_SPI.c **** 
 306:.\Generated_Source\PSoC4/SCB_1_SPI.c **** 
 307:.\Generated_Source\PSoC4/SCB_1_SPI.c **** /*******************************************************************************
 308:.\Generated_Source\PSoC4/SCB_1_SPI.c **** * Function Name: SCB_1_SpiStop
 309:.\Generated_Source\PSoC4/SCB_1_SPI.c **** ********************************************************************************
 310:.\Generated_Source\PSoC4/SCB_1_SPI.c **** *
 311:.\Generated_Source\PSoC4/SCB_1_SPI.c **** * Summary:
 312:.\Generated_Source\PSoC4/SCB_1_SPI.c **** *  Changes the HSIOM settings for the SPI master output pins (SCLK and/or SS0-SS3) to
 313:.\Generated_Source\PSoC4/SCB_1_SPI.c **** *  keep them inactive after the block is disabled. The output pins are
 314:.\Generated_Source\PSoC4/SCB_1_SPI.c **** *  controlled by the GPIO data register.
 315:.\Generated_Source\PSoC4/SCB_1_SPI.c **** *
 316:.\Generated_Source\PSoC4/SCB_1_SPI.c **** * Parameters:
 317:.\Generated_Source\PSoC4/SCB_1_SPI.c **** *  None
 318:.\Generated_Source\PSoC4/SCB_1_SPI.c **** *
 319:.\Generated_Source\PSoC4/SCB_1_SPI.c **** * Return:
 320:.\Generated_Source\PSoC4/SCB_1_SPI.c **** *  None
 321:.\Generated_Source\PSoC4/SCB_1_SPI.c **** *
 322:.\Generated_Source\PSoC4/SCB_1_SPI.c **** *******************************************************************************/
 323:.\Generated_Source\PSoC4/SCB_1_SPI.c **** void SCB_1_SpiStop(void)
 324:.\Generated_Source\PSoC4/SCB_1_SPI.c **** {
  66              		.loc 1 324 0
  67              		.cfi_startproc
  68 0000 10B5     		push	{r4, lr}
  69              		.cfi_def_cfa_offset 8
  70              		.cfi_offset 4, -8
  71              		.cfi_offset 14, -4
 325:.\Generated_Source\PSoC4/SCB_1_SPI.c **** #if(SCB_1_SCB_MODE_UNCONFIG_CONST_CFG)
 326:.\Generated_Source\PSoC4/SCB_1_SPI.c **** 
 327:.\Generated_Source\PSoC4/SCB_1_SPI.c ****     if (SCB_1_CHECK_SPI_MASTER)
 328:.\Generated_Source\PSoC4/SCB_1_SPI.c ****     {
ARM GAS  C:\DOCUME~1\Remixvit\LOCALS~1\Temp\ccDIv7eo.s 			page 8


 329:.\Generated_Source\PSoC4/SCB_1_SPI.c ****     #if (SCB_1_SCLK_PIN)
 330:.\Generated_Source\PSoC4/SCB_1_SPI.c ****         /* Set output pin state after block is disabled */
 331:.\Generated_Source\PSoC4/SCB_1_SPI.c ****         SCB_1_spi_sclk_Write(SCB_1_GET_SPI_SCLK_INACTIVE);
 332:.\Generated_Source\PSoC4/SCB_1_SPI.c **** 
 333:.\Generated_Source\PSoC4/SCB_1_SPI.c ****         /* Set GPIO to drive output pin */
 334:.\Generated_Source\PSoC4/SCB_1_SPI.c ****         SCB_1_SET_HSIOM_SEL(SCB_1_SCLK_HSIOM_REG, SCB_1_SCLK_HSIOM_MASK,
 335:.\Generated_Source\PSoC4/SCB_1_SPI.c ****                                        SCB_1_SCLK_HSIOM_POS, SCB_1_HSIOM_GPIO_SEL);
 336:.\Generated_Source\PSoC4/SCB_1_SPI.c ****     #endif /* (SCB_1_MISO_SDA_TX_PIN_PIN) */
 337:.\Generated_Source\PSoC4/SCB_1_SPI.c **** 
 338:.\Generated_Source\PSoC4/SCB_1_SPI.c ****     #if (SCB_1_SS0_PIN)
 339:.\Generated_Source\PSoC4/SCB_1_SPI.c ****         /* Set output pin state after block is disabled */
 340:.\Generated_Source\PSoC4/SCB_1_SPI.c ****         SCB_1_spi_ss0_Write(SCB_1_GET_SPI_SS0_INACTIVE);
 341:.\Generated_Source\PSoC4/SCB_1_SPI.c **** 
 342:.\Generated_Source\PSoC4/SCB_1_SPI.c ****         /* Set GPIO to drive output pin */
 343:.\Generated_Source\PSoC4/SCB_1_SPI.c ****         SCB_1_SET_HSIOM_SEL(SCB_1_SS0_HSIOM_REG, SCB_1_SS0_HSIOM_MASK,
 344:.\Generated_Source\PSoC4/SCB_1_SPI.c ****                                        SCB_1_SS0_HSIOM_POS, SCB_1_HSIOM_GPIO_SEL);
 345:.\Generated_Source\PSoC4/SCB_1_SPI.c ****     #endif /* (SCB_1_SS0_PIN) */
 346:.\Generated_Source\PSoC4/SCB_1_SPI.c **** 
 347:.\Generated_Source\PSoC4/SCB_1_SPI.c ****     #if (SCB_1_SS1_PIN)
 348:.\Generated_Source\PSoC4/SCB_1_SPI.c ****         /* Set output pin state after block is disabled */
 349:.\Generated_Source\PSoC4/SCB_1_SPI.c ****         SCB_1_spi_ss1_Write(SCB_1_GET_SPI_SS1_INACTIVE);
 350:.\Generated_Source\PSoC4/SCB_1_SPI.c **** 
 351:.\Generated_Source\PSoC4/SCB_1_SPI.c ****         /* Set GPIO to drive output pin */
 352:.\Generated_Source\PSoC4/SCB_1_SPI.c ****         SCB_1_SET_HSIOM_SEL(SCB_1_SS1_HSIOM_REG, SCB_1_SS1_HSIOM_MASK,
 353:.\Generated_Source\PSoC4/SCB_1_SPI.c ****                                        SCB_1_SS1_HSIOM_POS, SCB_1_HSIOM_GPIO_SEL);
 354:.\Generated_Source\PSoC4/SCB_1_SPI.c ****     #endif /* (SCB_1_SS1_PIN) */
 355:.\Generated_Source\PSoC4/SCB_1_SPI.c **** 
 356:.\Generated_Source\PSoC4/SCB_1_SPI.c ****     #if (SCB_1_SS2_PIN)
 357:.\Generated_Source\PSoC4/SCB_1_SPI.c ****         /* Set output pin state after block is disabled */
 358:.\Generated_Source\PSoC4/SCB_1_SPI.c ****         SCB_1_spi_ss2_Write(SCB_1_GET_SPI_SS2_INACTIVE);
 359:.\Generated_Source\PSoC4/SCB_1_SPI.c **** 
 360:.\Generated_Source\PSoC4/SCB_1_SPI.c ****         /* Set GPIO to drive output pin */
 361:.\Generated_Source\PSoC4/SCB_1_SPI.c ****         SCB_1_SET_HSIOM_SEL(SCB_1_SS2_HSIOM_REG, SCB_1_SS2_HSIOM_MASK,
 362:.\Generated_Source\PSoC4/SCB_1_SPI.c ****                                        SCB_1_SS2_HSIOM_POS, SCB_1_HSIOM_GPIO_SEL);
 363:.\Generated_Source\PSoC4/SCB_1_SPI.c ****     #endif /* (SCB_1_SS2_PIN) */
 364:.\Generated_Source\PSoC4/SCB_1_SPI.c **** 
 365:.\Generated_Source\PSoC4/SCB_1_SPI.c ****     #if (SCB_1_SS3_PIN)
 366:.\Generated_Source\PSoC4/SCB_1_SPI.c ****         /* Set output pin state after block is disabled */
 367:.\Generated_Source\PSoC4/SCB_1_SPI.c ****         SCB_1_spi_ss3_Write(SCB_1_GET_SPI_SS3_INACTIVE);
 368:.\Generated_Source\PSoC4/SCB_1_SPI.c **** 
 369:.\Generated_Source\PSoC4/SCB_1_SPI.c ****         /* Set GPIO to drive output pin */
 370:.\Generated_Source\PSoC4/SCB_1_SPI.c ****         SCB_1_SET_HSIOM_SEL(SCB_1_SS3_HSIOM_REG, SCB_1_SS3_HSIOM_MASK,
 371:.\Generated_Source\PSoC4/SCB_1_SPI.c ****                                        SCB_1_SS3_HSIOM_POS, SCB_1_HSIOM_GPIO_SEL);
 372:.\Generated_Source\PSoC4/SCB_1_SPI.c ****     #endif /* (SCB_1_SS3_PIN) */
 373:.\Generated_Source\PSoC4/SCB_1_SPI.c ****     }
 374:.\Generated_Source\PSoC4/SCB_1_SPI.c **** 
 375:.\Generated_Source\PSoC4/SCB_1_SPI.c **** #else
 376:.\Generated_Source\PSoC4/SCB_1_SPI.c **** 
 377:.\Generated_Source\PSoC4/SCB_1_SPI.c **** #if (SCB_1_SPI_MASTER_SCLK_PIN)
 378:.\Generated_Source\PSoC4/SCB_1_SPI.c ****     /* Set output pin state after block is disabled */
 379:.\Generated_Source\PSoC4/SCB_1_SPI.c ****     SCB_1_sclk_m_Write(SCB_1_GET_SPI_SCLK_INACTIVE);
  72              		.loc 1 379 0
  73 0002 0D4B     		ldr	r3, .L5
  74 0004 1868     		ldr	r0, [r3]
  75 0006 0007     		lsl	r0, r0, #28
  76 0008 C00F     		lsr	r0, r0, #31
  77 000a FFF7FEFF 		bl	SCB_1_sclk_m_Write
ARM GAS  C:\DOCUME~1\Remixvit\LOCALS~1\Temp\ccDIv7eo.s 			page 9


  78              	.LVL0:
 380:.\Generated_Source\PSoC4/SCB_1_SPI.c **** 
 381:.\Generated_Source\PSoC4/SCB_1_SPI.c ****     /* Set GPIO to drive output pin */
 382:.\Generated_Source\PSoC4/SCB_1_SPI.c ****     SCB_1_SET_HSIOM_SEL(SCB_1_SCLK_M_HSIOM_REG, SCB_1_SCLK_M_HSIOM_MASK,
  79              		.loc 1 382 0
  80 000e 0B4C     		ldr	r4, .L5+4
  81 0010 2268     		ldr	r2, [r4]
  82 0012 0B4B     		ldr	r3, .L5+8
  83 0014 1340     		and	r3, r2
  84 0016 2360     		str	r3, [r4]
 383:.\Generated_Source\PSoC4/SCB_1_SPI.c ****                                    SCB_1_SCLK_M_HSIOM_POS, SCB_1_HSIOM_GPIO_SEL);
 384:.\Generated_Source\PSoC4/SCB_1_SPI.c **** #endif /* (SCB_1_MISO_SDA_TX_PIN_PIN) */
 385:.\Generated_Source\PSoC4/SCB_1_SPI.c **** 
 386:.\Generated_Source\PSoC4/SCB_1_SPI.c **** #if (SCB_1_SPI_MASTER_SS0_PIN)
 387:.\Generated_Source\PSoC4/SCB_1_SPI.c ****     /* Set output pin state after block is disabled */
 388:.\Generated_Source\PSoC4/SCB_1_SPI.c ****     SCB_1_ss0_m_Write(SCB_1_GET_SPI_SS0_INACTIVE);
  85              		.loc 1 388 0
  86 0018 0120     		mov	r0, #1
  87 001a FFF7FEFF 		bl	SCB_1_ss0_m_Write
  88              	.LVL1:
 389:.\Generated_Source\PSoC4/SCB_1_SPI.c **** 
 390:.\Generated_Source\PSoC4/SCB_1_SPI.c ****     /* Set GPIO to drive output pin */
 391:.\Generated_Source\PSoC4/SCB_1_SPI.c ****     SCB_1_SET_HSIOM_SEL(SCB_1_SS0_M_HSIOM_REG, SCB_1_SS0_M_HSIOM_MASK,
  89              		.loc 1 391 0
  90 001e 2268     		ldr	r2, [r4]
  91 0020 084B     		ldr	r3, .L5+12
  92 0022 1340     		and	r3, r2
  93 0024 2360     		str	r3, [r4]
 392:.\Generated_Source\PSoC4/SCB_1_SPI.c ****                                    SCB_1_SS0_M_HSIOM_POS, SCB_1_HSIOM_GPIO_SEL);
 393:.\Generated_Source\PSoC4/SCB_1_SPI.c **** #endif /* (SCB_1_SPI_MASTER_SS0_PIN) */
 394:.\Generated_Source\PSoC4/SCB_1_SPI.c **** 
 395:.\Generated_Source\PSoC4/SCB_1_SPI.c **** #if (SCB_1_SPI_MASTER_SS1_PIN)
 396:.\Generated_Source\PSoC4/SCB_1_SPI.c ****     /* Set output pin state after block is disabled */
 397:.\Generated_Source\PSoC4/SCB_1_SPI.c ****     SCB_1_ss1_m_Write(SCB_1_GET_SPI_SS1_INACTIVE);
  94              		.loc 1 397 0
  95 0026 0120     		mov	r0, #1
  96 0028 FFF7FEFF 		bl	SCB_1_ss1_m_Write
  97              	.LVL2:
 398:.\Generated_Source\PSoC4/SCB_1_SPI.c **** 
 399:.\Generated_Source\PSoC4/SCB_1_SPI.c ****     /* Set GPIO to drive output pin */
 400:.\Generated_Source\PSoC4/SCB_1_SPI.c ****     SCB_1_SET_HSIOM_SEL(SCB_1_SS1_M_HSIOM_REG, SCB_1_SS1_M_HSIOM_MASK,
  98              		.loc 1 400 0
  99 002c 064A     		ldr	r2, .L5+16
 100 002e 1368     		ldr	r3, [r2]
 101 0030 0F21     		mov	r1, #15
 102 0032 8B43     		bic	r3, r1
 103 0034 1360     		str	r3, [r2]
 401:.\Generated_Source\PSoC4/SCB_1_SPI.c ****                                    SCB_1_SS1_M_HSIOM_POS, SCB_1_HSIOM_GPIO_SEL);
 402:.\Generated_Source\PSoC4/SCB_1_SPI.c **** #endif /* (SCB_1_SPI_MASTER_SS1_PIN) */
 403:.\Generated_Source\PSoC4/SCB_1_SPI.c **** 
 404:.\Generated_Source\PSoC4/SCB_1_SPI.c **** #if (SCB_1_SPI_MASTER_SS2_PIN)
 405:.\Generated_Source\PSoC4/SCB_1_SPI.c ****     /* Set output pin state after block is disabled */
 406:.\Generated_Source\PSoC4/SCB_1_SPI.c ****     SCB_1_ss2_m_Write(SCB_1_GET_SPI_SS2_INACTIVE);
 407:.\Generated_Source\PSoC4/SCB_1_SPI.c **** 
 408:.\Generated_Source\PSoC4/SCB_1_SPI.c ****     /* Set GPIO to drive output pin */
 409:.\Generated_Source\PSoC4/SCB_1_SPI.c ****     SCB_1_SET_HSIOM_SEL(SCB_1_SS2_M_HSIOM_REG, SCB_1_SS2_M_HSIOM_MASK,
 410:.\Generated_Source\PSoC4/SCB_1_SPI.c ****                                    SCB_1_SS2_M_HSIOM_POS, SCB_1_HSIOM_GPIO_SEL);
ARM GAS  C:\DOCUME~1\Remixvit\LOCALS~1\Temp\ccDIv7eo.s 			page 10


 411:.\Generated_Source\PSoC4/SCB_1_SPI.c **** #endif /* (SCB_1_SPI_MASTER_SS2_PIN) */
 412:.\Generated_Source\PSoC4/SCB_1_SPI.c **** 
 413:.\Generated_Source\PSoC4/SCB_1_SPI.c **** #if (SCB_1_SPI_MASTER_SS3_PIN)
 414:.\Generated_Source\PSoC4/SCB_1_SPI.c ****     /* Set output pin state after block is disabled */
 415:.\Generated_Source\PSoC4/SCB_1_SPI.c ****     SCB_1_ss3_m_Write(SCB_1_GET_SPI_SS3_INACTIVE);
 416:.\Generated_Source\PSoC4/SCB_1_SPI.c **** 
 417:.\Generated_Source\PSoC4/SCB_1_SPI.c ****     /* Set GPIO to drive output pin */
 418:.\Generated_Source\PSoC4/SCB_1_SPI.c ****     SCB_1_SET_HSIOM_SEL(SCB_1_SS3_M_HSIOM_REG, SCB_1_SS3_M_HSIOM_MASK,
 419:.\Generated_Source\PSoC4/SCB_1_SPI.c ****                                    SCB_1_SS3_M_HSIOM_POS, SCB_1_HSIOM_GPIO_SEL);
 420:.\Generated_Source\PSoC4/SCB_1_SPI.c **** #endif /* (SCB_1_SPI_MASTER_SS3_PIN) */
 421:.\Generated_Source\PSoC4/SCB_1_SPI.c **** 
 422:.\Generated_Source\PSoC4/SCB_1_SPI.c **** #endif /* (SCB_1_SCB_MODE_UNCONFIG_CONST_CFG) */
 423:.\Generated_Source\PSoC4/SCB_1_SPI.c **** }
 104              		.loc 1 423 0
 105              		@ sp needed
 106 0036 10BD     		pop	{r4, pc}
 107              	.L6:
 108              		.align	2
 109              	.L5:
 110 0038 20000640 		.word	1074135072
 111 003c 10000140 		.word	1073807376
 112 0040 FFF0FFFF 		.word	-3841
 113 0044 FF0FFFFF 		.word	-61441
 114 0048 00000140 		.word	1073807360
 115              		.cfi_endproc
 116              	.LFE2:
 117              		.size	SCB_1_SpiStop, .-SCB_1_SpiStop
 118              		.section	.text.SCB_1_SpiSetActiveSlaveSelect,"ax",%progbits
 119              		.align	2
 120              		.global	SCB_1_SpiSetActiveSlaveSelect
 121              		.code	16
 122              		.thumb_func
 123              		.type	SCB_1_SpiSetActiveSlaveSelect, %function
 124              	SCB_1_SpiSetActiveSlaveSelect:
 125              	.LFB3:
 424:.\Generated_Source\PSoC4/SCB_1_SPI.c **** 
 425:.\Generated_Source\PSoC4/SCB_1_SPI.c **** 
 426:.\Generated_Source\PSoC4/SCB_1_SPI.c **** #if (SCB_1_SPI_MASTER_CONST)
 427:.\Generated_Source\PSoC4/SCB_1_SPI.c ****     /*******************************************************************************
 428:.\Generated_Source\PSoC4/SCB_1_SPI.c ****     * Function Name: SCB_1_SetActiveSlaveSelect
 429:.\Generated_Source\PSoC4/SCB_1_SPI.c ****     ********************************************************************************
 430:.\Generated_Source\PSoC4/SCB_1_SPI.c ****     *
 431:.\Generated_Source\PSoC4/SCB_1_SPI.c ****     * Summary:
 432:.\Generated_Source\PSoC4/SCB_1_SPI.c ****     *  Selects one of the four slave select lines to be active during the transfer.
 433:.\Generated_Source\PSoC4/SCB_1_SPI.c ****     *  After initialization the active slave select line is 0.
 434:.\Generated_Source\PSoC4/SCB_1_SPI.c ****     *  The component should be in one of the following states to change the active
 435:.\Generated_Source\PSoC4/SCB_1_SPI.c ****     *  slave select signal source correctly:
 436:.\Generated_Source\PSoC4/SCB_1_SPI.c ****     *   - The component is disabled
 437:.\Generated_Source\PSoC4/SCB_1_SPI.c ****     *   - The component has completed transfer (TX FIFO is empty and the
 438:.\Generated_Source\PSoC4/SCB_1_SPI.c ****     *     SCB_INTR_MASTER_SPI_DONE status is set)
 439:.\Generated_Source\PSoC4/SCB_1_SPI.c ****     *  This function does not check that these conditions are met.
 440:.\Generated_Source\PSoC4/SCB_1_SPI.c ****     *  This function is only applicable to SPI Master mode of operation.
 441:.\Generated_Source\PSoC4/SCB_1_SPI.c ****     *
 442:.\Generated_Source\PSoC4/SCB_1_SPI.c ****     * Parameters:
 443:.\Generated_Source\PSoC4/SCB_1_SPI.c ****     *  slaveSelect: slave select line which will be active while the following
 444:.\Generated_Source\PSoC4/SCB_1_SPI.c ****     *               transfer.
 445:.\Generated_Source\PSoC4/SCB_1_SPI.c ****     *   SCB_1_SPI_SLAVE_SELECT0 - Slave select 0
ARM GAS  C:\DOCUME~1\Remixvit\LOCALS~1\Temp\ccDIv7eo.s 			page 11


 446:.\Generated_Source\PSoC4/SCB_1_SPI.c ****     *   SCB_1_SPI_SLAVE_SELECT1 - Slave select 1
 447:.\Generated_Source\PSoC4/SCB_1_SPI.c ****     *   SCB_1_SPI_SLAVE_SELECT2 - Slave select 2
 448:.\Generated_Source\PSoC4/SCB_1_SPI.c ****     *   SCB_1_SPI_SLAVE_SELECT3 - Slave select 3
 449:.\Generated_Source\PSoC4/SCB_1_SPI.c ****     *
 450:.\Generated_Source\PSoC4/SCB_1_SPI.c ****     * Return:
 451:.\Generated_Source\PSoC4/SCB_1_SPI.c ****     *  None
 452:.\Generated_Source\PSoC4/SCB_1_SPI.c ****     *
 453:.\Generated_Source\PSoC4/SCB_1_SPI.c ****     *******************************************************************************/
 454:.\Generated_Source\PSoC4/SCB_1_SPI.c ****     void SCB_1_SpiSetActiveSlaveSelect(uint32 slaveSelect)
 455:.\Generated_Source\PSoC4/SCB_1_SPI.c ****     {
 126              		.loc 1 455 0
 127              		.cfi_startproc
 128              	.LVL3:
 456:.\Generated_Source\PSoC4/SCB_1_SPI.c ****         uint32 spiCtrl;
 457:.\Generated_Source\PSoC4/SCB_1_SPI.c **** 
 458:.\Generated_Source\PSoC4/SCB_1_SPI.c ****         spiCtrl = SCB_1_SPI_CTRL_REG;
 129              		.loc 1 458 0
 130 0000 0549     		ldr	r1, .L8
 131 0002 0A68     		ldr	r2, [r1]
 132              	.LVL4:
 459:.\Generated_Source\PSoC4/SCB_1_SPI.c **** 
 460:.\Generated_Source\PSoC4/SCB_1_SPI.c ****         spiCtrl &= (uint32) ~SCB_1_SPI_CTRL_SLAVE_SELECT_MASK;
 133              		.loc 1 460 0
 134 0004 054B     		ldr	r3, .L8+4
 135 0006 1340     		and	r3, r2
 136              	.LVL5:
 461:.\Generated_Source\PSoC4/SCB_1_SPI.c ****         spiCtrl |= (uint32)  SCB_1_GET_SPI_CTRL_SS(slaveSelect);
 137              		.loc 1 461 0
 138 0008 8006     		lsl	r0, r0, #26
 139              	.LVL6:
 140 000a C022     		mov	r2, #192
 141 000c 1205     		lsl	r2, r2, #20
 142 000e 1040     		and	r0, r2
 143 0010 1843     		orr	r0, r3
 144              	.LVL7:
 462:.\Generated_Source\PSoC4/SCB_1_SPI.c **** 
 463:.\Generated_Source\PSoC4/SCB_1_SPI.c ****         SCB_1_SPI_CTRL_REG = spiCtrl;
 145              		.loc 1 463 0
 146 0012 0860     		str	r0, [r1]
 464:.\Generated_Source\PSoC4/SCB_1_SPI.c ****     }
 147              		.loc 1 464 0
 148              		@ sp needed
 149 0014 7047     		bx	lr
 150              	.L9:
 151 0016 C046     		.align	2
 152              	.L8:
 153 0018 20000640 		.word	1074135072
 154 001c FFFFFFF3 		.word	-201326593
 155              		.cfi_endproc
 156              	.LFE3:
 157              		.size	SCB_1_SpiSetActiveSlaveSelect, .-SCB_1_SpiSetActiveSlaveSelect
 158              		.section	.text.SCB_1_SpiInit,"ax",%progbits
 159              		.align	2
 160              		.global	SCB_1_SpiInit
 161              		.code	16
 162              		.thumb_func
 163              		.type	SCB_1_SpiInit, %function
ARM GAS  C:\DOCUME~1\Remixvit\LOCALS~1\Temp\ccDIv7eo.s 			page 12


 164              	SCB_1_SpiInit:
 165              	.LFB0:
 172:.\Generated_Source\PSoC4/SCB_1_SPI.c ****         /* Configure SPI interface */
 166              		.loc 1 172 0
 167              		.cfi_startproc
 168 0000 08B5     		push	{r3, lr}
 169              		.cfi_def_cfa_offset 8
 170              		.cfi_offset 3, -8
 171              		.cfi_offset 14, -4
 174:.\Generated_Source\PSoC4/SCB_1_SPI.c ****         SCB_1_SPI_CTRL_REG = SCB_1_SPI_DEFAULT_SPI_CTRL;
 172              		.loc 1 174 0
 173 0002 104A     		ldr	r2, .L11
 174 0004 104B     		ldr	r3, .L11+4
 175 0006 1A60     		str	r2, [r3]
 175:.\Generated_Source\PSoC4/SCB_1_SPI.c **** 
 176              		.loc 1 175 0
 177 0008 104A     		ldr	r2, .L11+8
 178 000a 114B     		ldr	r3, .L11+12
 179 000c 1A60     		str	r2, [r3]
 178:.\Generated_Source\PSoC4/SCB_1_SPI.c ****         SCB_1_RX_FIFO_CTRL_REG = SCB_1_SPI_DEFAULT_RX_FIFO_CTRL;
 180              		.loc 1 178 0
 181 000e 114B     		ldr	r3, .L11+16
 182 0010 114A     		ldr	r2, .L11+20
 183 0012 1360     		str	r3, [r2]
 179:.\Generated_Source\PSoC4/SCB_1_SPI.c **** 
 184              		.loc 1 179 0
 185 0014 0721     		mov	r1, #7
 186 0016 114A     		ldr	r2, .L11+24
 187 0018 1160     		str	r1, [r2]
 182:.\Generated_Source\PSoC4/SCB_1_SPI.c ****         SCB_1_TX_FIFO_CTRL_REG = SCB_1_SPI_DEFAULT_TX_FIFO_CTRL;
 188              		.loc 1 182 0
 189 001a 114A     		ldr	r2, .L11+28
 190 001c 1360     		str	r3, [r2]
 183:.\Generated_Source\PSoC4/SCB_1_SPI.c **** 
 191              		.loc 1 183 0
 192 001e 0023     		mov	r3, #0
 193 0020 104A     		ldr	r2, .L11+32
 194 0022 1360     		str	r3, [r2]
 193:.\Generated_Source\PSoC4/SCB_1_SPI.c ****         SCB_1_INTR_SPI_EC_MASK_REG = SCB_1_SPI_DEFAULT_INTR_SPI_EC_MASK;
 195              		.loc 1 193 0
 196 0024 104A     		ldr	r2, .L11+36
 197 0026 1360     		str	r3, [r2]
 194:.\Generated_Source\PSoC4/SCB_1_SPI.c ****         SCB_1_INTR_SLAVE_MASK_REG  = SCB_1_SPI_DEFAULT_INTR_SLAVE_MASK;
 198              		.loc 1 194 0
 199 0028 104A     		ldr	r2, .L11+40
 200 002a 1360     		str	r3, [r2]
 195:.\Generated_Source\PSoC4/SCB_1_SPI.c ****         SCB_1_INTR_MASTER_MASK_REG = SCB_1_SPI_DEFAULT_INTR_MASTER_MASK;
 201              		.loc 1 195 0
 202 002c 104A     		ldr	r2, .L11+44
 203 002e 1360     		str	r3, [r2]
 196:.\Generated_Source\PSoC4/SCB_1_SPI.c ****         SCB_1_INTR_RX_MASK_REG     = SCB_1_SPI_DEFAULT_INTR_RX_MASK;
 204              		.loc 1 196 0
 205 0030 104A     		ldr	r2, .L11+48
 206 0032 1360     		str	r3, [r2]
 197:.\Generated_Source\PSoC4/SCB_1_SPI.c ****         SCB_1_INTR_TX_MASK_REG     = SCB_1_SPI_DEFAULT_INTR_TX_MASK;
 207              		.loc 1 197 0
 208 0034 104A     		ldr	r2, .L11+52
ARM GAS  C:\DOCUME~1\Remixvit\LOCALS~1\Temp\ccDIv7eo.s 			page 13


 209 0036 1360     		str	r3, [r2]
 198:.\Generated_Source\PSoC4/SCB_1_SPI.c **** 
 210              		.loc 1 198 0
 211 0038 104A     		ldr	r2, .L11+56
 212 003a 1360     		str	r3, [r2]
 202:.\Generated_Source\PSoC4/SCB_1_SPI.c ****     #endif /* (SCB_1_SPI_MASTER_CONST) */
 213              		.loc 1 202 0
 214 003c 0020     		mov	r0, #0
 215 003e FFF7FEFF 		bl	SCB_1_SpiSetActiveSlaveSelect
 216              	.LVL8:
 215:.\Generated_Source\PSoC4/SCB_1_SPI.c **** #endif /* (SCB_1_SCB_MODE_UNCONFIG_CONST_CFG) */
 217              		.loc 1 215 0
 218              		@ sp needed
 219 0042 08BD     		pop	{r3, pc}
 220              	.L12:
 221              		.align	2
 222              	.L11:
 223 0044 0F000001 		.word	16777231
 224 0048 00000640 		.word	1074135040
 225 004c 01000080 		.word	-2147483647
 226 0050 20000640 		.word	1074135072
 227 0054 07010080 		.word	-2147483385
 228 0058 00030640 		.word	1074135808
 229 005c 04030640 		.word	1074135812
 230 0060 00020640 		.word	1074135552
 231 0064 04020640 		.word	1074135556
 232 0068 880E0640 		.word	1074138760
 233 006c C80E0640 		.word	1074138824
 234 0070 480F0640 		.word	1074138952
 235 0074 080F0640 		.word	1074138888
 236 0078 C80F0640 		.word	1074139080
 237 007c 880F0640 		.word	1074139016
 238              		.cfi_endproc
 239              	.LFE0:
 240              		.size	SCB_1_SpiInit, .-SCB_1_SpiInit
 241              		.text
 242              	.Letext0:
 243              		.file 2 "Generated_Source\\PSoC4/cytypes.h"
 244              		.file 3 ".\\Generated_Source\\PSoC4\\SCB_1_sclk_m.h"
 245              		.file 4 ".\\Generated_Source\\PSoC4\\SCB_1_ss0_m.h"
 246              		.file 5 ".\\Generated_Source\\PSoC4\\SCB_1_ss1_m.h"